
test.elf:     file format elf32-littleriscv


Disassembly of section .text:

00000000 <_start>:
       0:	40001137          	lui	sp,0x40001
       4:	004000ef          	jal	ra,8 <main>

00000008 <main>:
       8:	fd010113          	addi	sp,sp,-48 # 40000fd0 <_end+0xe38>
       c:	02112623          	sw	ra,44(sp)
      10:	02812423          	sw	s0,40(sp)
      14:	03010413          	addi	s0,sp,48
      18:	800007b7          	lui	a5,0x80000
      1c:	fef42623          	sw	a5,-20(s0)
      20:	800007b7          	lui	a5,0x80000
      24:	00478793          	addi	a5,a5,4 # 80000004 <_end+0x3ffffe6c>
      28:	fef42423          	sw	a5,-24(s0)
      2c:	00200793          	li	a5,2
      30:	fef42223          	sw	a5,-28(s0)
      34:	fec42783          	lw	a5,-20(s0)
      38:	0007a783          	lw	a5,0(a5)
      3c:	fef42023          	sw	a5,-32(s0)
      40:	fe842783          	lw	a5,-24(s0)
      44:	0007a783          	lw	a5,0(a5)
      48:	fcf42e23          	sw	a5,-36(s0)
      4c:	fdc42583          	lw	a1,-36(s0)
      50:	fe042503          	lw	a0,-32(s0)
      54:	060010ef          	jal	ra,10b4 <__mulsi3>
      58:	00050793          	mv	a5,a0
      5c:	00179713          	slli	a4,a5,0x1
      60:	fe442783          	lw	a5,-28(s0)
      64:	00f70733          	add	a4,a4,a5
      68:	fec42783          	lw	a5,-20(s0)
      6c:	00e7a023          	sw	a4,0(a5)
      70:	fe442583          	lw	a1,-28(s0)
      74:	400007b7          	lui	a5,0x40000
      78:	00878513          	addi	a0,a5,8 # 40000008 <upper_digits+0x4>
      7c:	781000ef          	jal	ra,ffc <ee_printf>
      80:	400007b7          	lui	a5,0x40000
      84:	01478513          	addi	a0,a5,20 # 40000014 <upper_digits+0x10>
      88:	775000ef          	jal	ra,ffc <ee_printf>
      8c:	0000006f          	j	8c <main+0x84>

00000090 <strnlen>:
      90:	fd010113          	addi	sp,sp,-48
      94:	02812623          	sw	s0,44(sp)
      98:	03010413          	addi	s0,sp,48
      9c:	fca42e23          	sw	a0,-36(s0)
      a0:	fcb42c23          	sw	a1,-40(s0)
      a4:	fdc42783          	lw	a5,-36(s0)
      a8:	fef42623          	sw	a5,-20(s0)
      ac:	0100006f          	j	bc <strnlen+0x2c>
      b0:	fec42783          	lw	a5,-20(s0)
      b4:	00178793          	addi	a5,a5,1
      b8:	fef42623          	sw	a5,-20(s0)
      bc:	fec42783          	lw	a5,-20(s0)
      c0:	0007c783          	lbu	a5,0(a5)
      c4:	00078a63          	beqz	a5,d8 <strnlen+0x48>
      c8:	fd842783          	lw	a5,-40(s0)
      cc:	fff78713          	addi	a4,a5,-1
      d0:	fce42c23          	sw	a4,-40(s0)
      d4:	fc079ee3          	bnez	a5,b0 <strnlen+0x20>
      d8:	fec42703          	lw	a4,-20(s0)
      dc:	fdc42783          	lw	a5,-36(s0)
      e0:	40f707b3          	sub	a5,a4,a5
      e4:	00078513          	mv	a0,a5
      e8:	02c12403          	lw	s0,44(sp)
      ec:	03010113          	addi	sp,sp,48
      f0:	00008067          	ret

000000f4 <skip_atoi>:
      f4:	fd010113          	addi	sp,sp,-48
      f8:	02812623          	sw	s0,44(sp)
      fc:	03010413          	addi	s0,sp,48
     100:	fca42e23          	sw	a0,-36(s0)
     104:	fe042623          	sw	zero,-20(s0)
     108:	0400006f          	j	148 <skip_atoi+0x54>
     10c:	fec42703          	lw	a4,-20(s0)
     110:	00070793          	mv	a5,a4
     114:	00279793          	slli	a5,a5,0x2
     118:	00e787b3          	add	a5,a5,a4
     11c:	00179793          	slli	a5,a5,0x1
     120:	00078613          	mv	a2,a5
     124:	fdc42783          	lw	a5,-36(s0)
     128:	0007a783          	lw	a5,0(a5)
     12c:	00178693          	addi	a3,a5,1
     130:	fdc42703          	lw	a4,-36(s0)
     134:	00d72023          	sw	a3,0(a4)
     138:	0007c783          	lbu	a5,0(a5)
     13c:	00f607b3          	add	a5,a2,a5
     140:	fd078793          	addi	a5,a5,-48
     144:	fef42623          	sw	a5,-20(s0)
     148:	fdc42783          	lw	a5,-36(s0)
     14c:	0007a783          	lw	a5,0(a5)
     150:	0007c703          	lbu	a4,0(a5)
     154:	02f00793          	li	a5,47
     158:	00e7fc63          	bgeu	a5,a4,170 <skip_atoi+0x7c>
     15c:	fdc42783          	lw	a5,-36(s0)
     160:	0007a783          	lw	a5,0(a5)
     164:	0007c703          	lbu	a4,0(a5)
     168:	03900793          	li	a5,57
     16c:	fae7f0e3          	bgeu	a5,a4,10c <skip_atoi+0x18>
     170:	fec42783          	lw	a5,-20(s0)
     174:	00078513          	mv	a0,a5
     178:	02c12403          	lw	s0,44(sp)
     17c:	03010113          	addi	sp,sp,48
     180:	00008067          	ret

00000184 <number>:
     184:	f8010113          	addi	sp,sp,-128
     188:	06112e23          	sw	ra,124(sp)
     18c:	06812c23          	sw	s0,120(sp)
     190:	08010413          	addi	s0,sp,128
     194:	f8a42e23          	sw	a0,-100(s0)
     198:	f8b42c23          	sw	a1,-104(s0)
     19c:	f8c42a23          	sw	a2,-108(s0)
     1a0:	f8d42823          	sw	a3,-112(s0)
     1a4:	f8e42623          	sw	a4,-116(s0)
     1a8:	f8f42423          	sw	a5,-120(s0)
     1ac:	400007b7          	lui	a5,0x40000
     1b0:	0007a783          	lw	a5,0(a5) # 40000000 <digits>
     1b4:	fef42423          	sw	a5,-24(s0)
     1b8:	f8842783          	lw	a5,-120(s0)
     1bc:	0407f793          	andi	a5,a5,64
     1c0:	00078863          	beqz	a5,1d0 <number+0x4c>
     1c4:	400007b7          	lui	a5,0x40000
     1c8:	0047a783          	lw	a5,4(a5) # 40000004 <upper_digits>
     1cc:	fef42423          	sw	a5,-24(s0)
     1d0:	f8842783          	lw	a5,-120(s0)
     1d4:	0107f793          	andi	a5,a5,16
     1d8:	00078863          	beqz	a5,1e8 <number+0x64>
     1dc:	f8842783          	lw	a5,-120(s0)
     1e0:	ffe7f793          	andi	a5,a5,-2
     1e4:	f8f42423          	sw	a5,-120(s0)
     1e8:	f9442703          	lw	a4,-108(s0)
     1ec:	00100793          	li	a5,1
     1f0:	00e7d863          	bge	a5,a4,200 <number+0x7c>
     1f4:	f9442703          	lw	a4,-108(s0)
     1f8:	02400793          	li	a5,36
     1fc:	00e7d663          	bge	a5,a4,208 <number+0x84>
     200:	00000793          	li	a5,0
     204:	3100006f          	j	514 <number+0x390>
     208:	f8842783          	lw	a5,-120(s0)
     20c:	0017f793          	andi	a5,a5,1
     210:	00078663          	beqz	a5,21c <number+0x98>
     214:	03000793          	li	a5,48
     218:	0080006f          	j	220 <number+0x9c>
     21c:	02000793          	li	a5,32
     220:	fef401a3          	sb	a5,-29(s0)
     224:	fe0407a3          	sb	zero,-17(s0)
     228:	f8842783          	lw	a5,-120(s0)
     22c:	0027f793          	andi	a5,a5,2
     230:	06078a63          	beqz	a5,2a4 <number+0x120>
     234:	f9842783          	lw	a5,-104(s0)
     238:	0207d463          	bgez	a5,260 <number+0xdc>
     23c:	02d00793          	li	a5,45
     240:	fef407a3          	sb	a5,-17(s0)
     244:	f9842783          	lw	a5,-104(s0)
     248:	40f007b3          	neg	a5,a5
     24c:	f8f42c23          	sw	a5,-104(s0)
     250:	f9042783          	lw	a5,-112(s0)
     254:	fff78793          	addi	a5,a5,-1
     258:	f8f42823          	sw	a5,-112(s0)
     25c:	0480006f          	j	2a4 <number+0x120>
     260:	f8842783          	lw	a5,-120(s0)
     264:	0047f793          	andi	a5,a5,4
     268:	00078e63          	beqz	a5,284 <number+0x100>
     26c:	02b00793          	li	a5,43
     270:	fef407a3          	sb	a5,-17(s0)
     274:	f9042783          	lw	a5,-112(s0)
     278:	fff78793          	addi	a5,a5,-1
     27c:	f8f42823          	sw	a5,-112(s0)
     280:	0240006f          	j	2a4 <number+0x120>
     284:	f8842783          	lw	a5,-120(s0)
     288:	0087f793          	andi	a5,a5,8
     28c:	00078c63          	beqz	a5,2a4 <number+0x120>
     290:	02000793          	li	a5,32
     294:	fef407a3          	sb	a5,-17(s0)
     298:	f9042783          	lw	a5,-112(s0)
     29c:	fff78793          	addi	a5,a5,-1
     2a0:	f8f42823          	sw	a5,-112(s0)
     2a4:	f8842783          	lw	a5,-120(s0)
     2a8:	0207f793          	andi	a5,a5,32
     2ac:	02078c63          	beqz	a5,2e4 <number+0x160>
     2b0:	f9442703          	lw	a4,-108(s0)
     2b4:	01000793          	li	a5,16
     2b8:	00f71a63          	bne	a4,a5,2cc <number+0x148>
     2bc:	f9042783          	lw	a5,-112(s0)
     2c0:	ffe78793          	addi	a5,a5,-2
     2c4:	f8f42823          	sw	a5,-112(s0)
     2c8:	01c0006f          	j	2e4 <number+0x160>
     2cc:	f9442703          	lw	a4,-108(s0)
     2d0:	00800793          	li	a5,8
     2d4:	00f71863          	bne	a4,a5,2e4 <number+0x160>
     2d8:	f9042783          	lw	a5,-112(s0)
     2dc:	fff78793          	addi	a5,a5,-1
     2e0:	f8f42823          	sw	a5,-112(s0)
     2e4:	fe042223          	sw	zero,-28(s0)
     2e8:	f9842783          	lw	a5,-104(s0)
     2ec:	08079063          	bnez	a5,36c <number+0x1e8>
     2f0:	fe442783          	lw	a5,-28(s0)
     2f4:	00178713          	addi	a4,a5,1
     2f8:	fee42223          	sw	a4,-28(s0)
     2fc:	ff040713          	addi	a4,s0,-16
     300:	00f707b3          	add	a5,a4,a5
     304:	03000713          	li	a4,48
     308:	fae78823          	sb	a4,-80(a5)
     30c:	0680006f          	j	374 <number+0x1f0>
     310:	f9842783          	lw	a5,-104(s0)
     314:	f9442703          	lw	a4,-108(s0)
     318:	00070593          	mv	a1,a4
     31c:	00078513          	mv	a0,a5
     320:	609000ef          	jal	ra,1128 <__umodsi3>
     324:	00050793          	mv	a5,a0
     328:	00078713          	mv	a4,a5
     32c:	fe842783          	lw	a5,-24(s0)
     330:	00e78733          	add	a4,a5,a4
     334:	fe442783          	lw	a5,-28(s0)
     338:	00178693          	addi	a3,a5,1
     33c:	fed42223          	sw	a3,-28(s0)
     340:	00074703          	lbu	a4,0(a4)
     344:	ff040693          	addi	a3,s0,-16
     348:	00f687b3          	add	a5,a3,a5
     34c:	fae78823          	sb	a4,-80(a5)
     350:	f9842783          	lw	a5,-104(s0)
     354:	f9442703          	lw	a4,-108(s0)
     358:	00070593          	mv	a1,a4
     35c:	00078513          	mv	a0,a5
     360:	581000ef          	jal	ra,10e0 <__udivsi3>
     364:	00050793          	mv	a5,a0
     368:	f8f42c23          	sw	a5,-104(s0)
     36c:	f9842783          	lw	a5,-104(s0)
     370:	fa0790e3          	bnez	a5,310 <number+0x18c>
     374:	fe442703          	lw	a4,-28(s0)
     378:	f8c42783          	lw	a5,-116(s0)
     37c:	00e7d663          	bge	a5,a4,388 <number+0x204>
     380:	fe442783          	lw	a5,-28(s0)
     384:	f8f42623          	sw	a5,-116(s0)
     388:	f9042703          	lw	a4,-112(s0)
     38c:	f8c42783          	lw	a5,-116(s0)
     390:	40f707b3          	sub	a5,a4,a5
     394:	f8f42823          	sw	a5,-112(s0)
     398:	f8842783          	lw	a5,-120(s0)
     39c:	0117f793          	andi	a5,a5,17
     3a0:	02079663          	bnez	a5,3cc <number+0x248>
     3a4:	0180006f          	j	3bc <number+0x238>
     3a8:	f9c42783          	lw	a5,-100(s0)
     3ac:	00178713          	addi	a4,a5,1
     3b0:	f8e42e23          	sw	a4,-100(s0)
     3b4:	02000713          	li	a4,32
     3b8:	00e78023          	sb	a4,0(a5)
     3bc:	f9042783          	lw	a5,-112(s0)
     3c0:	fff78713          	addi	a4,a5,-1
     3c4:	f8e42823          	sw	a4,-112(s0)
     3c8:	fef040e3          	bgtz	a5,3a8 <number+0x224>
     3cc:	fef44783          	lbu	a5,-17(s0)
     3d0:	00078c63          	beqz	a5,3e8 <number+0x264>
     3d4:	f9c42783          	lw	a5,-100(s0)
     3d8:	00178713          	addi	a4,a5,1
     3dc:	f8e42e23          	sw	a4,-100(s0)
     3e0:	fef44703          	lbu	a4,-17(s0)
     3e4:	00e78023          	sb	a4,0(a5)
     3e8:	f8842783          	lw	a5,-120(s0)
     3ec:	0207f793          	andi	a5,a5,32
     3f0:	06078263          	beqz	a5,454 <number+0x2d0>
     3f4:	f9442703          	lw	a4,-108(s0)
     3f8:	00800793          	li	a5,8
     3fc:	00f71e63          	bne	a4,a5,418 <number+0x294>
     400:	f9c42783          	lw	a5,-100(s0)
     404:	00178713          	addi	a4,a5,1
     408:	f8e42e23          	sw	a4,-100(s0)
     40c:	03000713          	li	a4,48
     410:	00e78023          	sb	a4,0(a5)
     414:	0400006f          	j	454 <number+0x2d0>
     418:	f9442703          	lw	a4,-108(s0)
     41c:	01000793          	li	a5,16
     420:	02f71a63          	bne	a4,a5,454 <number+0x2d0>
     424:	f9c42783          	lw	a5,-100(s0)
     428:	00178713          	addi	a4,a5,1
     42c:	f8e42e23          	sw	a4,-100(s0)
     430:	03000713          	li	a4,48
     434:	00e78023          	sb	a4,0(a5)
     438:	400007b7          	lui	a5,0x40000
     43c:	0007a703          	lw	a4,0(a5) # 40000000 <digits>
     440:	f9c42783          	lw	a5,-100(s0)
     444:	00178693          	addi	a3,a5,1
     448:	f8d42e23          	sw	a3,-100(s0)
     44c:	02174703          	lbu	a4,33(a4)
     450:	00e78023          	sb	a4,0(a5)
     454:	f8842783          	lw	a5,-120(s0)
     458:	0107f793          	andi	a5,a5,16
     45c:	04079263          	bnez	a5,4a0 <number+0x31c>
     460:	0180006f          	j	478 <number+0x2f4>
     464:	f9c42783          	lw	a5,-100(s0)
     468:	00178713          	addi	a4,a5,1
     46c:	f8e42e23          	sw	a4,-100(s0)
     470:	fe344703          	lbu	a4,-29(s0)
     474:	00e78023          	sb	a4,0(a5)
     478:	f9042783          	lw	a5,-112(s0)
     47c:	fff78713          	addi	a4,a5,-1
     480:	f8e42823          	sw	a4,-112(s0)
     484:	fef040e3          	bgtz	a5,464 <number+0x2e0>
     488:	0180006f          	j	4a0 <number+0x31c>
     48c:	f9c42783          	lw	a5,-100(s0)
     490:	00178713          	addi	a4,a5,1
     494:	f8e42e23          	sw	a4,-100(s0)
     498:	03000713          	li	a4,48
     49c:	00e78023          	sb	a4,0(a5)
     4a0:	f8c42783          	lw	a5,-116(s0)
     4a4:	fff78713          	addi	a4,a5,-1
     4a8:	f8e42623          	sw	a4,-116(s0)
     4ac:	fe442703          	lw	a4,-28(s0)
     4b0:	fcf74ee3          	blt	a4,a5,48c <number+0x308>
     4b4:	0240006f          	j	4d8 <number+0x354>
     4b8:	f9c42783          	lw	a5,-100(s0)
     4bc:	00178713          	addi	a4,a5,1
     4c0:	f8e42e23          	sw	a4,-100(s0)
     4c4:	fe442703          	lw	a4,-28(s0)
     4c8:	ff040693          	addi	a3,s0,-16
     4cc:	00e68733          	add	a4,a3,a4
     4d0:	fb074703          	lbu	a4,-80(a4)
     4d4:	00e78023          	sb	a4,0(a5)
     4d8:	fe442783          	lw	a5,-28(s0)
     4dc:	fff78713          	addi	a4,a5,-1
     4e0:	fee42223          	sw	a4,-28(s0)
     4e4:	fcf04ae3          	bgtz	a5,4b8 <number+0x334>
     4e8:	0180006f          	j	500 <number+0x37c>
     4ec:	f9c42783          	lw	a5,-100(s0)
     4f0:	00178713          	addi	a4,a5,1
     4f4:	f8e42e23          	sw	a4,-100(s0)
     4f8:	02000713          	li	a4,32
     4fc:	00e78023          	sb	a4,0(a5)
     500:	f9042783          	lw	a5,-112(s0)
     504:	fff78713          	addi	a4,a5,-1
     508:	f8e42823          	sw	a4,-112(s0)
     50c:	fef040e3          	bgtz	a5,4ec <number+0x368>
     510:	f9c42783          	lw	a5,-100(s0)
     514:	00078513          	mv	a0,a5
     518:	07c12083          	lw	ra,124(sp)
     51c:	07812403          	lw	s0,120(sp)
     520:	08010113          	addi	sp,sp,128
     524:	00008067          	ret

00000528 <eaddr>:
     528:	fa010113          	addi	sp,sp,-96
     52c:	04812e23          	sw	s0,92(sp)
     530:	06010413          	addi	s0,sp,96
     534:	faa42e23          	sw	a0,-68(s0)
     538:	fab42c23          	sw	a1,-72(s0)
     53c:	fac42a23          	sw	a2,-76(s0)
     540:	fad42823          	sw	a3,-80(s0)
     544:	fae42623          	sw	a4,-84(s0)
     548:	400007b7          	lui	a5,0x40000
     54c:	0007a783          	lw	a5,0(a5) # 40000000 <digits>
     550:	fef42623          	sw	a5,-20(s0)
     554:	fac42783          	lw	a5,-84(s0)
     558:	0407f793          	andi	a5,a5,64
     55c:	00078863          	beqz	a5,56c <eaddr+0x44>
     560:	400007b7          	lui	a5,0x40000
     564:	0047a783          	lw	a5,4(a5) # 40000004 <upper_digits>
     568:	fef42623          	sw	a5,-20(s0)
     56c:	fe042223          	sw	zero,-28(s0)
     570:	fe042423          	sw	zero,-24(s0)
     574:	0ac0006f          	j	620 <eaddr+0xf8>
     578:	fe842783          	lw	a5,-24(s0)
     57c:	02078063          	beqz	a5,59c <eaddr+0x74>
     580:	fe442783          	lw	a5,-28(s0)
     584:	00178713          	addi	a4,a5,1
     588:	fee42223          	sw	a4,-28(s0)
     58c:	ff040713          	addi	a4,s0,-16
     590:	00f707b3          	add	a5,a4,a5
     594:	03a00713          	li	a4,58
     598:	fce78e23          	sb	a4,-36(a5)
     59c:	fe842783          	lw	a5,-24(s0)
     5a0:	fb842703          	lw	a4,-72(s0)
     5a4:	00f707b3          	add	a5,a4,a5
     5a8:	0007c783          	lbu	a5,0(a5)
     5ac:	0047d793          	srli	a5,a5,0x4
     5b0:	0ff7f793          	andi	a5,a5,255
     5b4:	00078713          	mv	a4,a5
     5b8:	fec42783          	lw	a5,-20(s0)
     5bc:	00e78733          	add	a4,a5,a4
     5c0:	fe442783          	lw	a5,-28(s0)
     5c4:	00178693          	addi	a3,a5,1
     5c8:	fed42223          	sw	a3,-28(s0)
     5cc:	00074703          	lbu	a4,0(a4)
     5d0:	ff040693          	addi	a3,s0,-16
     5d4:	00f687b3          	add	a5,a3,a5
     5d8:	fce78e23          	sb	a4,-36(a5)
     5dc:	fe842783          	lw	a5,-24(s0)
     5e0:	fb842703          	lw	a4,-72(s0)
     5e4:	00f707b3          	add	a5,a4,a5
     5e8:	0007c783          	lbu	a5,0(a5)
     5ec:	00f7f793          	andi	a5,a5,15
     5f0:	fec42703          	lw	a4,-20(s0)
     5f4:	00f70733          	add	a4,a4,a5
     5f8:	fe442783          	lw	a5,-28(s0)
     5fc:	00178693          	addi	a3,a5,1
     600:	fed42223          	sw	a3,-28(s0)
     604:	00074703          	lbu	a4,0(a4)
     608:	ff040693          	addi	a3,s0,-16
     60c:	00f687b3          	add	a5,a3,a5
     610:	fce78e23          	sb	a4,-36(a5)
     614:	fe842783          	lw	a5,-24(s0)
     618:	00178793          	addi	a5,a5,1
     61c:	fef42423          	sw	a5,-24(s0)
     620:	fe842703          	lw	a4,-24(s0)
     624:	00500793          	li	a5,5
     628:	f4e7d8e3          	bge	a5,a4,578 <eaddr+0x50>
     62c:	fac42783          	lw	a5,-84(s0)
     630:	0107f793          	andi	a5,a5,16
     634:	02079863          	bnez	a5,664 <eaddr+0x13c>
     638:	0180006f          	j	650 <eaddr+0x128>
     63c:	fbc42783          	lw	a5,-68(s0)
     640:	00178713          	addi	a4,a5,1
     644:	fae42e23          	sw	a4,-68(s0)
     648:	02000713          	li	a4,32
     64c:	00e78023          	sb	a4,0(a5)
     650:	fb442783          	lw	a5,-76(s0)
     654:	fff78713          	addi	a4,a5,-1
     658:	fae42a23          	sw	a4,-76(s0)
     65c:	fe442703          	lw	a4,-28(s0)
     660:	fcf74ee3          	blt	a4,a5,63c <eaddr+0x114>
     664:	fe042423          	sw	zero,-24(s0)
     668:	0300006f          	j	698 <eaddr+0x170>
     66c:	fbc42783          	lw	a5,-68(s0)
     670:	00178713          	addi	a4,a5,1
     674:	fae42e23          	sw	a4,-68(s0)
     678:	fe842703          	lw	a4,-24(s0)
     67c:	ff040693          	addi	a3,s0,-16
     680:	00e68733          	add	a4,a3,a4
     684:	fdc74703          	lbu	a4,-36(a4)
     688:	00e78023          	sb	a4,0(a5)
     68c:	fe842783          	lw	a5,-24(s0)
     690:	00178793          	addi	a5,a5,1
     694:	fef42423          	sw	a5,-24(s0)
     698:	fe842703          	lw	a4,-24(s0)
     69c:	fe442783          	lw	a5,-28(s0)
     6a0:	fcf746e3          	blt	a4,a5,66c <eaddr+0x144>
     6a4:	0180006f          	j	6bc <eaddr+0x194>
     6a8:	fbc42783          	lw	a5,-68(s0)
     6ac:	00178713          	addi	a4,a5,1
     6b0:	fae42e23          	sw	a4,-68(s0)
     6b4:	02000713          	li	a4,32
     6b8:	00e78023          	sb	a4,0(a5)
     6bc:	fb442783          	lw	a5,-76(s0)
     6c0:	fff78713          	addi	a4,a5,-1
     6c4:	fae42a23          	sw	a4,-76(s0)
     6c8:	fe442703          	lw	a4,-28(s0)
     6cc:	fcf74ee3          	blt	a4,a5,6a8 <eaddr+0x180>
     6d0:	fbc42783          	lw	a5,-68(s0)
     6d4:	00078513          	mv	a0,a5
     6d8:	05c12403          	lw	s0,92(sp)
     6dc:	06010113          	addi	sp,sp,96
     6e0:	00008067          	ret

000006e4 <iaddr>:
     6e4:	fa010113          	addi	sp,sp,-96
     6e8:	04112e23          	sw	ra,92(sp)
     6ec:	04812c23          	sw	s0,88(sp)
     6f0:	04912a23          	sw	s1,84(sp)
     6f4:	06010413          	addi	s0,sp,96
     6f8:	faa42e23          	sw	a0,-68(s0)
     6fc:	fab42c23          	sw	a1,-72(s0)
     700:	fac42a23          	sw	a2,-76(s0)
     704:	fad42823          	sw	a3,-80(s0)
     708:	fae42623          	sw	a4,-84(s0)
     70c:	fe042223          	sw	zero,-28(s0)
     710:	fe042623          	sw	zero,-20(s0)
     714:	1bc0006f          	j	8d0 <iaddr+0x1ec>
     718:	fec42783          	lw	a5,-20(s0)
     71c:	02078063          	beqz	a5,73c <iaddr+0x58>
     720:	fe442783          	lw	a5,-28(s0)
     724:	00178713          	addi	a4,a5,1
     728:	fee42223          	sw	a4,-28(s0)
     72c:	ff040713          	addi	a4,s0,-16
     730:	00f707b3          	add	a5,a4,a5
     734:	02e00713          	li	a4,46
     738:	fce78e23          	sb	a4,-36(a5)
     73c:	fec42783          	lw	a5,-20(s0)
     740:	fb842703          	lw	a4,-72(s0)
     744:	00f707b3          	add	a5,a4,a5
     748:	0007c783          	lbu	a5,0(a5)
     74c:	fef42423          	sw	a5,-24(s0)
     750:	fe842783          	lw	a5,-24(s0)
     754:	02079663          	bnez	a5,780 <iaddr+0x9c>
     758:	400007b7          	lui	a5,0x40000
     75c:	0007a703          	lw	a4,0(a5) # 40000000 <digits>
     760:	fe442783          	lw	a5,-28(s0)
     764:	00178693          	addi	a3,a5,1
     768:	fed42223          	sw	a3,-28(s0)
     76c:	00074703          	lbu	a4,0(a4)
     770:	ff040693          	addi	a3,s0,-16
     774:	00f687b3          	add	a5,a3,a5
     778:	fce78e23          	sb	a4,-36(a5)
     77c:	1480006f          	j	8c4 <iaddr+0x1e0>
     780:	fe842703          	lw	a4,-24(s0)
     784:	06300793          	li	a5,99
     788:	0ae7d863          	bge	a5,a4,838 <iaddr+0x154>
     78c:	400007b7          	lui	a5,0x40000
     790:	0007a483          	lw	s1,0(a5) # 40000000 <digits>
     794:	fe842783          	lw	a5,-24(s0)
     798:	06400593          	li	a1,100
     79c:	00078513          	mv	a0,a5
     7a0:	139000ef          	jal	ra,10d8 <__divsi3>
     7a4:	00050793          	mv	a5,a0
     7a8:	00f48733          	add	a4,s1,a5
     7ac:	fe442783          	lw	a5,-28(s0)
     7b0:	00178693          	addi	a3,a5,1
     7b4:	fed42223          	sw	a3,-28(s0)
     7b8:	00074703          	lbu	a4,0(a4)
     7bc:	ff040693          	addi	a3,s0,-16
     7c0:	00f687b3          	add	a5,a3,a5
     7c4:	fce78e23          	sb	a4,-36(a5)
     7c8:	fe842783          	lw	a5,-24(s0)
     7cc:	06400593          	li	a1,100
     7d0:	00078513          	mv	a0,a5
     7d4:	189000ef          	jal	ra,115c <__modsi3>
     7d8:	00050793          	mv	a5,a0
     7dc:	fef42423          	sw	a5,-24(s0)
     7e0:	400007b7          	lui	a5,0x40000
     7e4:	0007a483          	lw	s1,0(a5) # 40000000 <digits>
     7e8:	fe842783          	lw	a5,-24(s0)
     7ec:	00a00593          	li	a1,10
     7f0:	00078513          	mv	a0,a5
     7f4:	0e5000ef          	jal	ra,10d8 <__divsi3>
     7f8:	00050793          	mv	a5,a0
     7fc:	00f48733          	add	a4,s1,a5
     800:	fe442783          	lw	a5,-28(s0)
     804:	00178693          	addi	a3,a5,1
     808:	fed42223          	sw	a3,-28(s0)
     80c:	00074703          	lbu	a4,0(a4)
     810:	ff040693          	addi	a3,s0,-16
     814:	00f687b3          	add	a5,a3,a5
     818:	fce78e23          	sb	a4,-36(a5)
     81c:	fe842783          	lw	a5,-24(s0)
     820:	00a00593          	li	a1,10
     824:	00078513          	mv	a0,a5
     828:	135000ef          	jal	ra,115c <__modsi3>
     82c:	00050793          	mv	a5,a0
     830:	fef42423          	sw	a5,-24(s0)
     834:	0640006f          	j	898 <iaddr+0x1b4>
     838:	fe842703          	lw	a4,-24(s0)
     83c:	00900793          	li	a5,9
     840:	04e7dc63          	bge	a5,a4,898 <iaddr+0x1b4>
     844:	400007b7          	lui	a5,0x40000
     848:	0007a483          	lw	s1,0(a5) # 40000000 <digits>
     84c:	fe842783          	lw	a5,-24(s0)
     850:	00a00593          	li	a1,10
     854:	00078513          	mv	a0,a5
     858:	081000ef          	jal	ra,10d8 <__divsi3>
     85c:	00050793          	mv	a5,a0
     860:	00f48733          	add	a4,s1,a5
     864:	fe442783          	lw	a5,-28(s0)
     868:	00178693          	addi	a3,a5,1
     86c:	fed42223          	sw	a3,-28(s0)
     870:	00074703          	lbu	a4,0(a4)
     874:	ff040693          	addi	a3,s0,-16
     878:	00f687b3          	add	a5,a3,a5
     87c:	fce78e23          	sb	a4,-36(a5)
     880:	fe842783          	lw	a5,-24(s0)
     884:	00a00593          	li	a1,10
     888:	00078513          	mv	a0,a5
     88c:	0d1000ef          	jal	ra,115c <__modsi3>
     890:	00050793          	mv	a5,a0
     894:	fef42423          	sw	a5,-24(s0)
     898:	400007b7          	lui	a5,0x40000
     89c:	0007a703          	lw	a4,0(a5) # 40000000 <digits>
     8a0:	fe842783          	lw	a5,-24(s0)
     8a4:	00f70733          	add	a4,a4,a5
     8a8:	fe442783          	lw	a5,-28(s0)
     8ac:	00178693          	addi	a3,a5,1
     8b0:	fed42223          	sw	a3,-28(s0)
     8b4:	00074703          	lbu	a4,0(a4)
     8b8:	ff040693          	addi	a3,s0,-16
     8bc:	00f687b3          	add	a5,a3,a5
     8c0:	fce78e23          	sb	a4,-36(a5)
     8c4:	fec42783          	lw	a5,-20(s0)
     8c8:	00178793          	addi	a5,a5,1
     8cc:	fef42623          	sw	a5,-20(s0)
     8d0:	fec42703          	lw	a4,-20(s0)
     8d4:	00300793          	li	a5,3
     8d8:	e4e7d0e3          	bge	a5,a4,718 <iaddr+0x34>
     8dc:	fac42783          	lw	a5,-84(s0)
     8e0:	0107f793          	andi	a5,a5,16
     8e4:	02079863          	bnez	a5,914 <iaddr+0x230>
     8e8:	0180006f          	j	900 <iaddr+0x21c>
     8ec:	fbc42783          	lw	a5,-68(s0)
     8f0:	00178713          	addi	a4,a5,1
     8f4:	fae42e23          	sw	a4,-68(s0)
     8f8:	02000713          	li	a4,32
     8fc:	00e78023          	sb	a4,0(a5)
     900:	fb442783          	lw	a5,-76(s0)
     904:	fff78713          	addi	a4,a5,-1
     908:	fae42a23          	sw	a4,-76(s0)
     90c:	fe442703          	lw	a4,-28(s0)
     910:	fcf74ee3          	blt	a4,a5,8ec <iaddr+0x208>
     914:	fe042623          	sw	zero,-20(s0)
     918:	0300006f          	j	948 <iaddr+0x264>
     91c:	fbc42783          	lw	a5,-68(s0)
     920:	00178713          	addi	a4,a5,1
     924:	fae42e23          	sw	a4,-68(s0)
     928:	fec42703          	lw	a4,-20(s0)
     92c:	ff040693          	addi	a3,s0,-16
     930:	00e68733          	add	a4,a3,a4
     934:	fdc74703          	lbu	a4,-36(a4)
     938:	00e78023          	sb	a4,0(a5)
     93c:	fec42783          	lw	a5,-20(s0)
     940:	00178793          	addi	a5,a5,1
     944:	fef42623          	sw	a5,-20(s0)
     948:	fec42703          	lw	a4,-20(s0)
     94c:	fe442783          	lw	a5,-28(s0)
     950:	fcf746e3          	blt	a4,a5,91c <iaddr+0x238>
     954:	0180006f          	j	96c <iaddr+0x288>
     958:	fbc42783          	lw	a5,-68(s0)
     95c:	00178713          	addi	a4,a5,1
     960:	fae42e23          	sw	a4,-68(s0)
     964:	02000713          	li	a4,32
     968:	00e78023          	sb	a4,0(a5)
     96c:	fb442783          	lw	a5,-76(s0)
     970:	fff78713          	addi	a4,a5,-1
     974:	fae42a23          	sw	a4,-76(s0)
     978:	fe442703          	lw	a4,-28(s0)
     97c:	fcf74ee3          	blt	a4,a5,958 <iaddr+0x274>
     980:	fbc42783          	lw	a5,-68(s0)
     984:	00078513          	mv	a0,a5
     988:	05c12083          	lw	ra,92(sp)
     98c:	05812403          	lw	s0,88(sp)
     990:	05412483          	lw	s1,84(sp)
     994:	06010113          	addi	sp,sp,96
     998:	00008067          	ret

0000099c <ee_vsprintf>:
     99c:	fb010113          	addi	sp,sp,-80
     9a0:	04112623          	sw	ra,76(sp)
     9a4:	04812423          	sw	s0,72(sp)
     9a8:	05010413          	addi	s0,sp,80
     9ac:	faa42e23          	sw	a0,-68(s0)
     9b0:	fab42c23          	sw	a1,-72(s0)
     9b4:	fac42a23          	sw	a2,-76(s0)
     9b8:	fbc42783          	lw	a5,-68(s0)
     9bc:	fef42023          	sw	a5,-32(s0)
     9c0:	5ac0006f          	j	f6c <ee_vsprintf+0x5d0>
     9c4:	fb842783          	lw	a5,-72(s0)
     9c8:	0007c703          	lbu	a4,0(a5)
     9cc:	02500793          	li	a5,37
     9d0:	02f70063          	beq	a4,a5,9f0 <ee_vsprintf+0x54>
     9d4:	fb842703          	lw	a4,-72(s0)
     9d8:	fe042783          	lw	a5,-32(s0)
     9dc:	00178693          	addi	a3,a5,1
     9e0:	fed42023          	sw	a3,-32(s0)
     9e4:	00074703          	lbu	a4,0(a4)
     9e8:	00e78023          	sb	a4,0(a5)
     9ec:	5740006f          	j	f60 <ee_vsprintf+0x5c4>
     9f0:	fc042c23          	sw	zero,-40(s0)
     9f4:	fb842783          	lw	a5,-72(s0)
     9f8:	00178793          	addi	a5,a5,1
     9fc:	faf42c23          	sw	a5,-72(s0)
     a00:	fb842783          	lw	a5,-72(s0)
     a04:	0007c783          	lbu	a5,0(a5)
     a08:	fe078793          	addi	a5,a5,-32
     a0c:	01000713          	li	a4,16
     a10:	06f76663          	bltu	a4,a5,a7c <ee_vsprintf+0xe0>
     a14:	00279713          	slli	a4,a5,0x2
     a18:	400007b7          	lui	a5,0x40000
     a1c:	07478793          	addi	a5,a5,116 # 40000074 <upper_digits+0x70>
     a20:	00f707b3          	add	a5,a4,a5
     a24:	0007a783          	lw	a5,0(a5)
     a28:	00078067          	jr	a5
     a2c:	fd842783          	lw	a5,-40(s0)
     a30:	0107e793          	ori	a5,a5,16
     a34:	fcf42c23          	sw	a5,-40(s0)
     a38:	fbdff06f          	j	9f4 <ee_vsprintf+0x58>
     a3c:	fd842783          	lw	a5,-40(s0)
     a40:	0047e793          	ori	a5,a5,4
     a44:	fcf42c23          	sw	a5,-40(s0)
     a48:	fadff06f          	j	9f4 <ee_vsprintf+0x58>
     a4c:	fd842783          	lw	a5,-40(s0)
     a50:	0087e793          	ori	a5,a5,8
     a54:	fcf42c23          	sw	a5,-40(s0)
     a58:	f9dff06f          	j	9f4 <ee_vsprintf+0x58>
     a5c:	fd842783          	lw	a5,-40(s0)
     a60:	0207e793          	ori	a5,a5,32
     a64:	fcf42c23          	sw	a5,-40(s0)
     a68:	f8dff06f          	j	9f4 <ee_vsprintf+0x58>
     a6c:	fd842783          	lw	a5,-40(s0)
     a70:	0017e793          	ori	a5,a5,1
     a74:	fcf42c23          	sw	a5,-40(s0)
     a78:	f7dff06f          	j	9f4 <ee_vsprintf+0x58>
     a7c:	fff00793          	li	a5,-1
     a80:	fcf42a23          	sw	a5,-44(s0)
     a84:	fb842783          	lw	a5,-72(s0)
     a88:	0007c703          	lbu	a4,0(a5)
     a8c:	02f00793          	li	a5,47
     a90:	02e7f463          	bgeu	a5,a4,ab8 <ee_vsprintf+0x11c>
     a94:	fb842783          	lw	a5,-72(s0)
     a98:	0007c703          	lbu	a4,0(a5)
     a9c:	03900793          	li	a5,57
     aa0:	00e7ec63          	bltu	a5,a4,ab8 <ee_vsprintf+0x11c>
     aa4:	fb840793          	addi	a5,s0,-72
     aa8:	00078513          	mv	a0,a5
     aac:	e48ff0ef          	jal	ra,f4 <skip_atoi>
     ab0:	fca42a23          	sw	a0,-44(s0)
     ab4:	0540006f          	j	b08 <ee_vsprintf+0x16c>
     ab8:	fb842783          	lw	a5,-72(s0)
     abc:	0007c703          	lbu	a4,0(a5)
     ac0:	02a00793          	li	a5,42
     ac4:	04f71263          	bne	a4,a5,b08 <ee_vsprintf+0x16c>
     ac8:	fb842783          	lw	a5,-72(s0)
     acc:	00178793          	addi	a5,a5,1
     ad0:	faf42c23          	sw	a5,-72(s0)
     ad4:	fb442783          	lw	a5,-76(s0)
     ad8:	00478713          	addi	a4,a5,4
     adc:	fae42a23          	sw	a4,-76(s0)
     ae0:	0007a783          	lw	a5,0(a5)
     ae4:	fcf42a23          	sw	a5,-44(s0)
     ae8:	fd442783          	lw	a5,-44(s0)
     aec:	0007de63          	bgez	a5,b08 <ee_vsprintf+0x16c>
     af0:	fd442783          	lw	a5,-44(s0)
     af4:	40f007b3          	neg	a5,a5
     af8:	fcf42a23          	sw	a5,-44(s0)
     afc:	fd842783          	lw	a5,-40(s0)
     b00:	0107e793          	ori	a5,a5,16
     b04:	fcf42c23          	sw	a5,-40(s0)
     b08:	fff00793          	li	a5,-1
     b0c:	fcf42823          	sw	a5,-48(s0)
     b10:	fb842783          	lw	a5,-72(s0)
     b14:	0007c703          	lbu	a4,0(a5)
     b18:	02e00793          	li	a5,46
     b1c:	08f71063          	bne	a4,a5,b9c <ee_vsprintf+0x200>
     b20:	fb842783          	lw	a5,-72(s0)
     b24:	00178793          	addi	a5,a5,1
     b28:	faf42c23          	sw	a5,-72(s0)
     b2c:	fb842783          	lw	a5,-72(s0)
     b30:	0007c703          	lbu	a4,0(a5)
     b34:	02f00793          	li	a5,47
     b38:	02e7f463          	bgeu	a5,a4,b60 <ee_vsprintf+0x1c4>
     b3c:	fb842783          	lw	a5,-72(s0)
     b40:	0007c703          	lbu	a4,0(a5)
     b44:	03900793          	li	a5,57
     b48:	00e7ec63          	bltu	a5,a4,b60 <ee_vsprintf+0x1c4>
     b4c:	fb840793          	addi	a5,s0,-72
     b50:	00078513          	mv	a0,a5
     b54:	da0ff0ef          	jal	ra,f4 <skip_atoi>
     b58:	fca42823          	sw	a0,-48(s0)
     b5c:	0340006f          	j	b90 <ee_vsprintf+0x1f4>
     b60:	fb842783          	lw	a5,-72(s0)
     b64:	0007c703          	lbu	a4,0(a5)
     b68:	02a00793          	li	a5,42
     b6c:	02f71263          	bne	a4,a5,b90 <ee_vsprintf+0x1f4>
     b70:	fb842783          	lw	a5,-72(s0)
     b74:	00178793          	addi	a5,a5,1
     b78:	faf42c23          	sw	a5,-72(s0)
     b7c:	fb442783          	lw	a5,-76(s0)
     b80:	00478713          	addi	a4,a5,4
     b84:	fae42a23          	sw	a4,-76(s0)
     b88:	0007a783          	lw	a5,0(a5)
     b8c:	fcf42823          	sw	a5,-48(s0)
     b90:	fd042783          	lw	a5,-48(s0)
     b94:	0007d463          	bgez	a5,b9c <ee_vsprintf+0x200>
     b98:	fc042823          	sw	zero,-48(s0)
     b9c:	fff00793          	li	a5,-1
     ba0:	fcf42623          	sw	a5,-52(s0)
     ba4:	fb842783          	lw	a5,-72(s0)
     ba8:	0007c703          	lbu	a4,0(a5)
     bac:	06c00793          	li	a5,108
     bb0:	00f70a63          	beq	a4,a5,bc4 <ee_vsprintf+0x228>
     bb4:	fb842783          	lw	a5,-72(s0)
     bb8:	0007c703          	lbu	a4,0(a5)
     bbc:	04c00793          	li	a5,76
     bc0:	00f71e63          	bne	a4,a5,bdc <ee_vsprintf+0x240>
     bc4:	fb842783          	lw	a5,-72(s0)
     bc8:	0007c783          	lbu	a5,0(a5)
     bcc:	fcf42623          	sw	a5,-52(s0)
     bd0:	fb842783          	lw	a5,-72(s0)
     bd4:	00178793          	addi	a5,a5,1
     bd8:	faf42c23          	sw	a5,-72(s0)
     bdc:	00a00793          	li	a5,10
     be0:	fef42223          	sw	a5,-28(s0)
     be4:	fb842783          	lw	a5,-72(s0)
     be8:	0007c783          	lbu	a5,0(a5)
     bec:	fbf78793          	addi	a5,a5,-65
     bf0:	03700713          	li	a4,55
     bf4:	28f76863          	bltu	a4,a5,e84 <ee_vsprintf+0x4e8>
     bf8:	00279713          	slli	a4,a5,0x2
     bfc:	400007b7          	lui	a5,0x40000
     c00:	0b878793          	addi	a5,a5,184 # 400000b8 <upper_digits+0xb4>
     c04:	00f707b3          	add	a5,a4,a5
     c08:	0007a783          	lw	a5,0(a5)
     c0c:	00078067          	jr	a5
     c10:	fd842783          	lw	a5,-40(s0)
     c14:	0107f793          	andi	a5,a5,16
     c18:	02079863          	bnez	a5,c48 <ee_vsprintf+0x2ac>
     c1c:	0180006f          	j	c34 <ee_vsprintf+0x298>
     c20:	fe042783          	lw	a5,-32(s0)
     c24:	00178713          	addi	a4,a5,1
     c28:	fee42023          	sw	a4,-32(s0)
     c2c:	02000713          	li	a4,32
     c30:	00e78023          	sb	a4,0(a5)
     c34:	fd442783          	lw	a5,-44(s0)
     c38:	fff78793          	addi	a5,a5,-1
     c3c:	fcf42a23          	sw	a5,-44(s0)
     c40:	fd442783          	lw	a5,-44(s0)
     c44:	fcf04ee3          	bgtz	a5,c20 <ee_vsprintf+0x284>
     c48:	fb442783          	lw	a5,-76(s0)
     c4c:	00478713          	addi	a4,a5,4
     c50:	fae42a23          	sw	a4,-76(s0)
     c54:	0007a683          	lw	a3,0(a5)
     c58:	fe042783          	lw	a5,-32(s0)
     c5c:	00178713          	addi	a4,a5,1
     c60:	fee42023          	sw	a4,-32(s0)
     c64:	0ff6f713          	andi	a4,a3,255
     c68:	00e78023          	sb	a4,0(a5)
     c6c:	0180006f          	j	c84 <ee_vsprintf+0x2e8>
     c70:	fe042783          	lw	a5,-32(s0)
     c74:	00178713          	addi	a4,a5,1
     c78:	fee42023          	sw	a4,-32(s0)
     c7c:	02000713          	li	a4,32
     c80:	00e78023          	sb	a4,0(a5)
     c84:	fd442783          	lw	a5,-44(s0)
     c88:	fff78793          	addi	a5,a5,-1
     c8c:	fcf42a23          	sw	a5,-44(s0)
     c90:	fd442783          	lw	a5,-44(s0)
     c94:	fcf04ee3          	bgtz	a5,c70 <ee_vsprintf+0x2d4>
     c98:	2c80006f          	j	f60 <ee_vsprintf+0x5c4>
     c9c:	fb442783          	lw	a5,-76(s0)
     ca0:	00478713          	addi	a4,a5,4
     ca4:	fae42a23          	sw	a4,-76(s0)
     ca8:	0007a783          	lw	a5,0(a5)
     cac:	fcf42e23          	sw	a5,-36(s0)
     cb0:	fdc42783          	lw	a5,-36(s0)
     cb4:	00079863          	bnez	a5,cc4 <ee_vsprintf+0x328>
     cb8:	400007b7          	lui	a5,0x40000
     cbc:	06c78793          	addi	a5,a5,108 # 4000006c <upper_digits+0x68>
     cc0:	fcf42e23          	sw	a5,-36(s0)
     cc4:	fd042783          	lw	a5,-48(s0)
     cc8:	00078593          	mv	a1,a5
     ccc:	fdc42503          	lw	a0,-36(s0)
     cd0:	bc0ff0ef          	jal	ra,90 <strnlen>
     cd4:	00050793          	mv	a5,a0
     cd8:	fcf42423          	sw	a5,-56(s0)
     cdc:	fd842783          	lw	a5,-40(s0)
     ce0:	0107f793          	andi	a5,a5,16
     ce4:	02079863          	bnez	a5,d14 <ee_vsprintf+0x378>
     ce8:	0180006f          	j	d00 <ee_vsprintf+0x364>
     cec:	fe042783          	lw	a5,-32(s0)
     cf0:	00178713          	addi	a4,a5,1
     cf4:	fee42023          	sw	a4,-32(s0)
     cf8:	02000713          	li	a4,32
     cfc:	00e78023          	sb	a4,0(a5)
     d00:	fd442783          	lw	a5,-44(s0)
     d04:	fff78713          	addi	a4,a5,-1
     d08:	fce42a23          	sw	a4,-44(s0)
     d0c:	fc842703          	lw	a4,-56(s0)
     d10:	fcf74ee3          	blt	a4,a5,cec <ee_vsprintf+0x350>
     d14:	fe042423          	sw	zero,-24(s0)
     d18:	0300006f          	j	d48 <ee_vsprintf+0x3ac>
     d1c:	fdc42703          	lw	a4,-36(s0)
     d20:	00170793          	addi	a5,a4,1
     d24:	fcf42e23          	sw	a5,-36(s0)
     d28:	fe042783          	lw	a5,-32(s0)
     d2c:	00178693          	addi	a3,a5,1
     d30:	fed42023          	sw	a3,-32(s0)
     d34:	00074703          	lbu	a4,0(a4)
     d38:	00e78023          	sb	a4,0(a5)
     d3c:	fe842783          	lw	a5,-24(s0)
     d40:	00178793          	addi	a5,a5,1
     d44:	fef42423          	sw	a5,-24(s0)
     d48:	fe842703          	lw	a4,-24(s0)
     d4c:	fc842783          	lw	a5,-56(s0)
     d50:	fcf746e3          	blt	a4,a5,d1c <ee_vsprintf+0x380>
     d54:	0180006f          	j	d6c <ee_vsprintf+0x3d0>
     d58:	fe042783          	lw	a5,-32(s0)
     d5c:	00178713          	addi	a4,a5,1
     d60:	fee42023          	sw	a4,-32(s0)
     d64:	02000713          	li	a4,32
     d68:	00e78023          	sb	a4,0(a5)
     d6c:	fd442783          	lw	a5,-44(s0)
     d70:	fff78713          	addi	a4,a5,-1
     d74:	fce42a23          	sw	a4,-44(s0)
     d78:	fc842703          	lw	a4,-56(s0)
     d7c:	fcf74ee3          	blt	a4,a5,d58 <ee_vsprintf+0x3bc>
     d80:	1e00006f          	j	f60 <ee_vsprintf+0x5c4>
     d84:	fd442703          	lw	a4,-44(s0)
     d88:	fff00793          	li	a5,-1
     d8c:	00f71c63          	bne	a4,a5,da4 <ee_vsprintf+0x408>
     d90:	00800793          	li	a5,8
     d94:	fcf42a23          	sw	a5,-44(s0)
     d98:	fd842783          	lw	a5,-40(s0)
     d9c:	0017e793          	ori	a5,a5,1
     da0:	fcf42c23          	sw	a5,-40(s0)
     da4:	fb442783          	lw	a5,-76(s0)
     da8:	00478713          	addi	a4,a5,4
     dac:	fae42a23          	sw	a4,-76(s0)
     db0:	0007a783          	lw	a5,0(a5)
     db4:	00078593          	mv	a1,a5
     db8:	fd842783          	lw	a5,-40(s0)
     dbc:	fd042703          	lw	a4,-48(s0)
     dc0:	fd442683          	lw	a3,-44(s0)
     dc4:	01000613          	li	a2,16
     dc8:	fe042503          	lw	a0,-32(s0)
     dcc:	bb8ff0ef          	jal	ra,184 <number>
     dd0:	fea42023          	sw	a0,-32(s0)
     dd4:	18c0006f          	j	f60 <ee_vsprintf+0x5c4>
     dd8:	fd842783          	lw	a5,-40(s0)
     ddc:	0407e793          	ori	a5,a5,64
     de0:	fcf42c23          	sw	a5,-40(s0)
     de4:	fcc42703          	lw	a4,-52(s0)
     de8:	06c00793          	li	a5,108
     dec:	02f71a63          	bne	a4,a5,e20 <ee_vsprintf+0x484>
     df0:	fb442783          	lw	a5,-76(s0)
     df4:	00478713          	addi	a4,a5,4
     df8:	fae42a23          	sw	a4,-76(s0)
     dfc:	0007a783          	lw	a5,0(a5)
     e00:	fd842703          	lw	a4,-40(s0)
     e04:	fd042683          	lw	a3,-48(s0)
     e08:	fd442603          	lw	a2,-44(s0)
     e0c:	00078593          	mv	a1,a5
     e10:	fe042503          	lw	a0,-32(s0)
     e14:	f14ff0ef          	jal	ra,528 <eaddr>
     e18:	fea42023          	sw	a0,-32(s0)
     e1c:	1440006f          	j	f60 <ee_vsprintf+0x5c4>
     e20:	fb442783          	lw	a5,-76(s0)
     e24:	00478713          	addi	a4,a5,4
     e28:	fae42a23          	sw	a4,-76(s0)
     e2c:	0007a783          	lw	a5,0(a5)
     e30:	fd842703          	lw	a4,-40(s0)
     e34:	fd042683          	lw	a3,-48(s0)
     e38:	fd442603          	lw	a2,-44(s0)
     e3c:	00078593          	mv	a1,a5
     e40:	fe042503          	lw	a0,-32(s0)
     e44:	8a1ff0ef          	jal	ra,6e4 <iaddr>
     e48:	fea42023          	sw	a0,-32(s0)
     e4c:	1140006f          	j	f60 <ee_vsprintf+0x5c4>
     e50:	00800793          	li	a5,8
     e54:	fef42223          	sw	a5,-28(s0)
     e58:	08c0006f          	j	ee4 <ee_vsprintf+0x548>
     e5c:	fd842783          	lw	a5,-40(s0)
     e60:	0407e793          	ori	a5,a5,64
     e64:	fcf42c23          	sw	a5,-40(s0)
     e68:	01000793          	li	a5,16
     e6c:	fef42223          	sw	a5,-28(s0)
     e70:	0740006f          	j	ee4 <ee_vsprintf+0x548>
     e74:	fd842783          	lw	a5,-40(s0)
     e78:	0027e793          	ori	a5,a5,2
     e7c:	fcf42c23          	sw	a5,-40(s0)
     e80:	0600006f          	j	ee0 <ee_vsprintf+0x544>
     e84:	fb842783          	lw	a5,-72(s0)
     e88:	0007c703          	lbu	a4,0(a5)
     e8c:	02500793          	li	a5,37
     e90:	00f70c63          	beq	a4,a5,ea8 <ee_vsprintf+0x50c>
     e94:	fe042783          	lw	a5,-32(s0)
     e98:	00178713          	addi	a4,a5,1
     e9c:	fee42023          	sw	a4,-32(s0)
     ea0:	02500713          	li	a4,37
     ea4:	00e78023          	sb	a4,0(a5)
     ea8:	fb842783          	lw	a5,-72(s0)
     eac:	0007c783          	lbu	a5,0(a5)
     eb0:	02078063          	beqz	a5,ed0 <ee_vsprintf+0x534>
     eb4:	fb842703          	lw	a4,-72(s0)
     eb8:	fe042783          	lw	a5,-32(s0)
     ebc:	00178693          	addi	a3,a5,1
     ec0:	fed42023          	sw	a3,-32(s0)
     ec4:	00074703          	lbu	a4,0(a4)
     ec8:	00e78023          	sb	a4,0(a5)
     ecc:	0940006f          	j	f60 <ee_vsprintf+0x5c4>
     ed0:	fb842783          	lw	a5,-72(s0)
     ed4:	fff78793          	addi	a5,a5,-1
     ed8:	faf42c23          	sw	a5,-72(s0)
     edc:	0840006f          	j	f60 <ee_vsprintf+0x5c4>
     ee0:	00000013          	nop
     ee4:	fcc42703          	lw	a4,-52(s0)
     ee8:	06c00793          	li	a5,108
     eec:	00f71e63          	bne	a4,a5,f08 <ee_vsprintf+0x56c>
     ef0:	fb442783          	lw	a5,-76(s0)
     ef4:	00478713          	addi	a4,a5,4
     ef8:	fae42a23          	sw	a4,-76(s0)
     efc:	0007a783          	lw	a5,0(a5)
     f00:	fef42623          	sw	a5,-20(s0)
     f04:	03c0006f          	j	f40 <ee_vsprintf+0x5a4>
     f08:	fd842783          	lw	a5,-40(s0)
     f0c:	0027f793          	andi	a5,a5,2
     f10:	00078e63          	beqz	a5,f2c <ee_vsprintf+0x590>
     f14:	fb442783          	lw	a5,-76(s0)
     f18:	00478713          	addi	a4,a5,4
     f1c:	fae42a23          	sw	a4,-76(s0)
     f20:	0007a783          	lw	a5,0(a5)
     f24:	fef42623          	sw	a5,-20(s0)
     f28:	0180006f          	j	f40 <ee_vsprintf+0x5a4>
     f2c:	fb442783          	lw	a5,-76(s0)
     f30:	00478713          	addi	a4,a5,4
     f34:	fae42a23          	sw	a4,-76(s0)
     f38:	0007a783          	lw	a5,0(a5)
     f3c:	fef42623          	sw	a5,-20(s0)
     f40:	fec42583          	lw	a1,-20(s0)
     f44:	fd842783          	lw	a5,-40(s0)
     f48:	fd042703          	lw	a4,-48(s0)
     f4c:	fd442683          	lw	a3,-44(s0)
     f50:	fe442603          	lw	a2,-28(s0)
     f54:	fe042503          	lw	a0,-32(s0)
     f58:	a2cff0ef          	jal	ra,184 <number>
     f5c:	fea42023          	sw	a0,-32(s0)
     f60:	fb842783          	lw	a5,-72(s0)
     f64:	00178793          	addi	a5,a5,1
     f68:	faf42c23          	sw	a5,-72(s0)
     f6c:	fb842783          	lw	a5,-72(s0)
     f70:	0007c783          	lbu	a5,0(a5)
     f74:	a40798e3          	bnez	a5,9c4 <ee_vsprintf+0x28>
     f78:	fe042783          	lw	a5,-32(s0)
     f7c:	00078023          	sb	zero,0(a5)
     f80:	fe042703          	lw	a4,-32(s0)
     f84:	fbc42783          	lw	a5,-68(s0)
     f88:	40f707b3          	sub	a5,a4,a5
     f8c:	00078513          	mv	a0,a5
     f90:	04c12083          	lw	ra,76(sp)
     f94:	04812403          	lw	s0,72(sp)
     f98:	05010113          	addi	sp,sp,80
     f9c:	00008067          	ret

00000fa0 <uart_send_char>:
     fa0:	fd010113          	addi	sp,sp,-48
     fa4:	02812623          	sw	s0,44(sp)
     fa8:	03010413          	addi	s0,sp,48
     fac:	00050793          	mv	a5,a0
     fb0:	fcf40fa3          	sb	a5,-33(s0)
     fb4:	800007b7          	lui	a5,0x80000
     fb8:	10078793          	addi	a5,a5,256 # 80000100 <_end+0x3fffff68>
     fbc:	fef42623          	sw	a5,-20(s0)
     fc0:	800007b7          	lui	a5,0x80000
     fc4:	10478793          	addi	a5,a5,260 # 80000104 <_end+0x3fffff6c>
     fc8:	fef42423          	sw	a5,-24(s0)
     fcc:	00000013          	nop
     fd0:	fec42783          	lw	a5,-20(s0)
     fd4:	0007a703          	lw	a4,0(a5)
     fd8:	00100793          	li	a5,1
     fdc:	fef71ae3          	bne	a4,a5,fd0 <uart_send_char+0x30>
     fe0:	fdf44703          	lbu	a4,-33(s0)
     fe4:	fe842783          	lw	a5,-24(s0)
     fe8:	00e7a023          	sw	a4,0(a5)
     fec:	00000013          	nop
     ff0:	02c12403          	lw	s0,44(sp)
     ff4:	03010113          	addi	sp,sp,48
     ff8:	00008067          	ret

00000ffc <ee_printf>:
     ffc:	eb010113          	addi	sp,sp,-336
    1000:	12112623          	sw	ra,300(sp)
    1004:	12812423          	sw	s0,296(sp)
    1008:	13010413          	addi	s0,sp,304
    100c:	eca42e23          	sw	a0,-292(s0)
    1010:	00b42223          	sw	a1,4(s0)
    1014:	00c42423          	sw	a2,8(s0)
    1018:	00d42623          	sw	a3,12(s0)
    101c:	00e42823          	sw	a4,16(s0)
    1020:	00f42a23          	sw	a5,20(s0)
    1024:	01042c23          	sw	a6,24(s0)
    1028:	01142e23          	sw	a7,28(s0)
    102c:	fe042423          	sw	zero,-24(s0)
    1030:	02040793          	addi	a5,s0,32
    1034:	ecf42c23          	sw	a5,-296(s0)
    1038:	ed842783          	lw	a5,-296(s0)
    103c:	fe478793          	addi	a5,a5,-28
    1040:	eef42223          	sw	a5,-284(s0)
    1044:	ee442703          	lw	a4,-284(s0)
    1048:	ee840793          	addi	a5,s0,-280
    104c:	00070613          	mv	a2,a4
    1050:	edc42583          	lw	a1,-292(s0)
    1054:	00078513          	mv	a0,a5
    1058:	945ff0ef          	jal	ra,99c <ee_vsprintf>
    105c:	ee840793          	addi	a5,s0,-280
    1060:	fef42623          	sw	a5,-20(s0)
    1064:	02c0006f          	j	1090 <ee_printf+0x94>
    1068:	fec42783          	lw	a5,-20(s0)
    106c:	0007c783          	lbu	a5,0(a5)
    1070:	00078513          	mv	a0,a5
    1074:	f2dff0ef          	jal	ra,fa0 <uart_send_char>
    1078:	fe842783          	lw	a5,-24(s0)
    107c:	00178793          	addi	a5,a5,1
    1080:	fef42423          	sw	a5,-24(s0)
    1084:	fec42783          	lw	a5,-20(s0)
    1088:	00178793          	addi	a5,a5,1
    108c:	fef42623          	sw	a5,-20(s0)
    1090:	fec42783          	lw	a5,-20(s0)
    1094:	0007c783          	lbu	a5,0(a5)
    1098:	fc0798e3          	bnez	a5,1068 <ee_printf+0x6c>
    109c:	fe842783          	lw	a5,-24(s0)
    10a0:	00078513          	mv	a0,a5
    10a4:	12c12083          	lw	ra,300(sp)
    10a8:	12812403          	lw	s0,296(sp)
    10ac:	15010113          	addi	sp,sp,336
    10b0:	00008067          	ret

000010b4 <__mulsi3>:
    10b4:	00050613          	mv	a2,a0
    10b8:	00000513          	li	a0,0
    10bc:	0015f693          	andi	a3,a1,1
    10c0:	00068463          	beqz	a3,10c8 <__mulsi3+0x14>
    10c4:	00c50533          	add	a0,a0,a2
    10c8:	0015d593          	srli	a1,a1,0x1
    10cc:	00161613          	slli	a2,a2,0x1
    10d0:	fe0596e3          	bnez	a1,10bc <__mulsi3+0x8>
    10d4:	00008067          	ret

000010d8 <__divsi3>:
    10d8:	06054063          	bltz	a0,1138 <__umodsi3+0x10>
    10dc:	0605c663          	bltz	a1,1148 <__umodsi3+0x20>

000010e0 <__udivsi3>:
    10e0:	00058613          	mv	a2,a1
    10e4:	00050593          	mv	a1,a0
    10e8:	fff00513          	li	a0,-1
    10ec:	02060c63          	beqz	a2,1124 <__udivsi3+0x44>
    10f0:	00100693          	li	a3,1
    10f4:	00b67a63          	bgeu	a2,a1,1108 <__udivsi3+0x28>
    10f8:	00c05863          	blez	a2,1108 <__udivsi3+0x28>
    10fc:	00161613          	slli	a2,a2,0x1
    1100:	00169693          	slli	a3,a3,0x1
    1104:	feb66ae3          	bltu	a2,a1,10f8 <__udivsi3+0x18>
    1108:	00000513          	li	a0,0
    110c:	00c5e663          	bltu	a1,a2,1118 <__udivsi3+0x38>
    1110:	40c585b3          	sub	a1,a1,a2
    1114:	00d56533          	or	a0,a0,a3
    1118:	0016d693          	srli	a3,a3,0x1
    111c:	00165613          	srli	a2,a2,0x1
    1120:	fe0696e3          	bnez	a3,110c <__udivsi3+0x2c>
    1124:	00008067          	ret

00001128 <__umodsi3>:
    1128:	00008293          	mv	t0,ra
    112c:	fb5ff0ef          	jal	ra,10e0 <__udivsi3>
    1130:	00058513          	mv	a0,a1
    1134:	00028067          	jr	t0
    1138:	40a00533          	neg	a0,a0
    113c:	0005d863          	bgez	a1,114c <__umodsi3+0x24>
    1140:	40b005b3          	neg	a1,a1
    1144:	f9dff06f          	j	10e0 <__udivsi3>
    1148:	40b005b3          	neg	a1,a1
    114c:	00008293          	mv	t0,ra
    1150:	f91ff0ef          	jal	ra,10e0 <__udivsi3>
    1154:	40a00533          	neg	a0,a0
    1158:	00028067          	jr	t0

0000115c <__modsi3>:
    115c:	00008293          	mv	t0,ra
    1160:	0005ca63          	bltz	a1,1174 <__modsi3+0x18>
    1164:	00054c63          	bltz	a0,117c <__modsi3+0x20>
    1168:	f79ff0ef          	jal	ra,10e0 <__udivsi3>
    116c:	00058513          	mv	a0,a1
    1170:	00028067          	jr	t0
    1174:	40b005b3          	neg	a1,a1
    1178:	fe0558e3          	bgez	a0,1168 <__modsi3+0xc>
    117c:	40a00533          	neg	a0,a0
    1180:	f61ff0ef          	jal	ra,10e0 <__udivsi3>
    1184:	40b00533          	neg	a0,a1
    1188:	00028067          	jr	t0
