
/home/IC/project/github/starsea_riscv/riscv-compliance-master/work/rv32i/I-ADD-01.elf:     file format elf32-littleriscv


Disassembly of section .text.init:

00000000 <_start>:
   0:	40000297          	auipc	t0,0x40000
   4:	00028293          	mv	t0,t0
   8:	50502423          	sw	t0,1288(zero) # 508 <fromhost+0x8>
   c:	40000297          	auipc	t0,0x40000
  10:	08428293          	addi	t0,t0,132 # 40000090 <end_signature>
  14:	50502623          	sw	t0,1292(zero) # 50c <fromhost+0xc>
  18:	0480006f          	j	60 <reset_vector>

0000001c <trap_vector>:
  1c:	34202f73          	csrr	t5,mcause
  20:	00800f93          	li	t6,8
  24:	03ff0a63          	beq	t5,t6,58 <write_tohost>
  28:	00900f93          	li	t6,9
  2c:	03ff0663          	beq	t5,t6,58 <write_tohost>
  30:	00b00f93          	li	t6,11
  34:	03ff0263          	beq	t5,t6,58 <write_tohost>
  38:	00000f17          	auipc	t5,0x0
  3c:	fc8f0f13          	addi	t5,t5,-56 # 0 <_start>
  40:	000f0463          	beqz	t5,48 <trap_vector+0x2c>
  44:	000f0067          	jr	t5
  48:	34202f73          	csrr	t5,mcause
  4c:	000f5463          	bgez	t5,54 <handle_exception>
  50:	0040006f          	j	54 <handle_exception>

00000054 <handle_exception>:
  54:	5391e193          	ori	gp,gp,1337

00000058 <write_tohost>:
  58:	40302023          	sw	gp,1024(zero) # 400 <tohost>
  5c:	ffdff06f          	j	58 <write_tohost>

00000060 <reset_vector>:
  60:	f1402573          	csrr	a0,mhartid
  64:	00051063          	bnez	a0,64 <reset_vector+0x4>
  68:	00000297          	auipc	t0,0x0
  6c:	01028293          	addi	t0,t0,16 # 78 <reset_vector+0x18>
  70:	30529073          	csrw	mtvec,t0
  74:	18005073          	csrwi	satp,0
  78:	00000297          	auipc	t0,0x0
  7c:	01c28293          	addi	t0,t0,28 # 94 <reset_vector+0x34>
  80:	30529073          	csrw	mtvec,t0
  84:	fff00293          	li	t0,-1
  88:	3b029073          	csrw	pmpaddr0,t0
  8c:	01f00293          	li	t0,31
  90:	3a029073          	csrw	pmpcfg0,t0
  94:	00000297          	auipc	t0,0x0
  98:	01828293          	addi	t0,t0,24 # ac <reset_vector+0x4c>
  9c:	30529073          	csrw	mtvec,t0
  a0:	30205073          	csrwi	medeleg,0
  a4:	30305073          	csrwi	mideleg,0
  a8:	30405073          	csrwi	mie,0
  ac:	00000193          	li	gp,0
  b0:	00000297          	auipc	t0,0x0
  b4:	f6c28293          	addi	t0,t0,-148 # 1c <trap_vector>
  b8:	30529073          	csrw	mtvec,t0
  bc:	00100513          	li	a0,1
  c0:	01f51513          	slli	a0,a0,0x1f
  c4:	00054863          	bltz	a0,d4 <reset_vector+0x74>
  c8:	0ff0000f          	fence
  cc:	00100193          	li	gp,1
  d0:	00000073          	ecall
  d4:	00000297          	auipc	t0,0x0
  d8:	f2c28293          	addi	t0,t0,-212 # 0 <_start>
  dc:	00028e63          	beqz	t0,f8 <reset_vector+0x98>
  e0:	10529073          	csrw	stvec,t0
  e4:	0000b2b7          	lui	t0,0xb
  e8:	10928293          	addi	t0,t0,265 # b109 <fromhost+0xac09>
  ec:	30229073          	csrw	medeleg,t0
  f0:	30202373          	csrr	t1,medeleg
  f4:	f66290e3          	bne	t0,t1,54 <handle_exception>
  f8:	30005073          	csrwi	mstatus,0
  fc:	00002537          	lui	a0,0x2
 100:	80050513          	addi	a0,a0,-2048 # 1800 <fromhost+0x1300>
 104:	30052073          	csrs	mstatus,a0
 108:	00000297          	auipc	t0,0x0
 10c:	01428293          	addi	t0,t0,20 # 11c <begin_testcode>
 110:	34129073          	csrw	mepc,t0
 114:	f1402573          	csrr	a0,mhartid
 118:	30200073          	mret

0000011c <begin_testcode>:
 11c:	40000297          	auipc	t0,0x40000
 120:	ee428293          	addi	t0,t0,-284 # 40000000 <begin_signature>
 124:	fff00f93          	li	t6,-1
 128:	00000813          	li	a6,0
 12c:	010f8033          	add	zero,t6,a6
 130:	0002a023          	sw	zero,0(t0)
 134:	00100f13          	li	t5,1
 138:	80100793          	li	a5,-2047
 13c:	00ff00b3          	add	ra,t5,a5
 140:	0012a223          	sw	ra,4(t0)
 144:	00000e93          	li	t4,0
 148:	fff00713          	li	a4,-1
 14c:	00ee8133          	add	sp,t4,a4
 150:	0022a423          	sw	sp,8(t0)
 154:	7ff00e13          	li	t3,2047
 158:	fffff6b7          	lui	a3,0xfffff
 15c:	dcc68693          	addi	a3,a3,-564 # ffffedcc <_end+0xbfffebc8>
 160:	00de01b3          	add	gp,t3,a3
 164:	0032a623          	sw	gp,12(t0)
 168:	00000d93          	li	s11,0
 16c:	80000637          	lui	a2,0x80000
 170:	00cd8233          	add	tp,s11,a2
 174:	0042a823          	sw	tp,16(t0)
 178:	40000097          	auipc	ra,0x40000
 17c:	e9c08093          	addi	ra,ra,-356 # 40000014 <test_2_res>
 180:	00001d37          	lui	s10,0x1
 184:	800d0d13          	addi	s10,s10,-2048 # 800 <fromhost+0x300>
 188:	000015b7          	lui	a1,0x1
 18c:	23458593          	addi	a1,a1,564 # 1234 <fromhost+0xd34>
 190:	00bd02b3          	add	t0,s10,a1
 194:	0050a023          	sw	t0,0(ra)
 198:	07654cb7          	lui	s9,0x7654
 19c:	321c8c93          	addi	s9,s9,801 # 7654321 <fromhost+0x7653e21>
 1a0:	fff00513          	li	a0,-1
 1a4:	00ac8333          	add	t1,s9,a0
 1a8:	0060a223          	sw	t1,4(ra)
 1ac:	80000c37          	lui	s8,0x80000
 1b0:	fffc0c13          	addi	s8,s8,-1 # 7fffffff <_end+0x3ffffdfb>
 1b4:	00100493          	li	s1,1
 1b8:	009c03b3          	add	t2,s8,s1
 1bc:	0070a423          	sw	t2,8(ra)
 1c0:	00100b93          	li	s7,1
 1c4:	80000437          	lui	s0,0x80000
 1c8:	fff40413          	addi	s0,s0,-1 # 7fffffff <_end+0x3ffffdfb>
 1cc:	008b8433          	add	s0,s7,s0
 1d0:	0080a623          	sw	s0,12(ra)
 1d4:	fff00b13          	li	s6,-1
 1d8:	076543b7          	lui	t2,0x7654
 1dc:	32138393          	addi	t2,t2,801 # 7654321 <fromhost+0x7653e21>
 1e0:	007b04b3          	add	s1,s6,t2
 1e4:	0090a823          	sw	s1,16(ra)
 1e8:	40000097          	auipc	ra,0x40000
 1ec:	e4008093          	addi	ra,ra,-448 # 40000028 <test_3_res>
 1f0:	00001ab7          	lui	s5,0x1
 1f4:	234a8a93          	addi	s5,s5,564 # 1234 <fromhost+0xd34>
 1f8:	00001337          	lui	t1,0x1
 1fc:	80030313          	addi	t1,t1,-2048 # 800 <fromhost+0x300>
 200:	006a8533          	add	a0,s5,t1
 204:	00a0a023          	sw	a0,0(ra)
 208:	80000a37          	lui	s4,0x80000
 20c:	00000293          	li	t0,0
 210:	005a05b3          	add	a1,s4,t0
 214:	00b0a223          	sw	a1,4(ra)
 218:	fffff9b7          	lui	s3,0xfffff
 21c:	dcc98993          	addi	s3,s3,-564 # ffffedcc <_end+0xbfffebc8>
 220:	7ff00213          	li	tp,2047
 224:	00498633          	add	a2,s3,tp
 228:	00c0a423          	sw	a2,8(ra)
 22c:	fff00913          	li	s2,-1
 230:	fff00193          	li	gp,-1
 234:	003906b3          	add	a3,s2,gp
 238:	00d0a623          	sw	a3,12(ra)
 23c:	80100893          	li	a7,-2047
 240:	00100113          	li	sp,1
 244:	00288733          	add	a4,a7,sp
 248:	00e0a823          	sw	a4,16(ra)
 24c:	40000117          	auipc	sp,0x40000
 250:	df010113          	addi	sp,sp,-528 # 4000003c <test_4_res>
 254:	00000813          	li	a6,0
 258:	00000093          	li	ra,0
 25c:	001807b3          	add	a5,a6,ra
 260:	00f12023          	sw	a5,0(sp)
 264:	fff00793          	li	a5,-1
 268:	00000013          	nop
 26c:	00078833          	add	a6,a5,zero
 270:	01012223          	sw	a6,4(sp)
 274:	00100713          	li	a4,1
 278:	80100f93          	li	t6,-2047
 27c:	01f708b3          	add	a7,a4,t6
 280:	01112423          	sw	a7,8(sp)
 284:	00000693          	li	a3,0
 288:	fff00f13          	li	t5,-1
 28c:	01e68933          	add	s2,a3,t5
 290:	01212623          	sw	s2,12(sp)
 294:	7ff00613          	li	a2,2047
 298:	fffffeb7          	lui	t4,0xfffff
 29c:	dcce8e93          	addi	t4,t4,-564 # ffffedcc <_end+0xbfffebc8>
 2a0:	01d609b3          	add	s3,a2,t4
 2a4:	01312823          	sw	s3,16(sp)
 2a8:	40000097          	auipc	ra,0x40000
 2ac:	da808093          	addi	ra,ra,-600 # 40000050 <test_5_res>
 2b0:	00000593          	li	a1,0
 2b4:	80000e37          	lui	t3,0x80000
 2b8:	01c58a33          	add	s4,a1,t3
 2bc:	0140a023          	sw	s4,0(ra)
 2c0:	00001537          	lui	a0,0x1
 2c4:	80050513          	addi	a0,a0,-2048 # 800 <fromhost+0x300>
 2c8:	00001db7          	lui	s11,0x1
 2cc:	234d8d93          	addi	s11,s11,564 # 1234 <fromhost+0xd34>
 2d0:	01b50ab3          	add	s5,a0,s11
 2d4:	0150a223          	sw	s5,4(ra)
 2d8:	076544b7          	lui	s1,0x7654
 2dc:	32148493          	addi	s1,s1,801 # 7654321 <fromhost+0x7653e21>
 2e0:	fff00d13          	li	s10,-1
 2e4:	01a48b33          	add	s6,s1,s10
 2e8:	0160a423          	sw	s6,8(ra)
 2ec:	80000437          	lui	s0,0x80000
 2f0:	fff40413          	addi	s0,s0,-1 # 7fffffff <_end+0x3ffffdfb>
 2f4:	00100c93          	li	s9,1
 2f8:	01940bb3          	add	s7,s0,s9
 2fc:	0170a623          	sw	s7,12(ra)
 300:	00100393          	li	t2,1
 304:	80000c37          	lui	s8,0x80000
 308:	fffc0c13          	addi	s8,s8,-1 # 7fffffff <_end+0x3ffffdfb>
 30c:	01838c33          	add	s8,t2,s8
 310:	0180a823          	sw	s8,16(ra)
 314:	40000097          	auipc	ra,0x40000
 318:	d5008093          	addi	ra,ra,-688 # 40000064 <test_6_res>
 31c:	fff00313          	li	t1,-1
 320:	07654bb7          	lui	s7,0x7654
 324:	321b8b93          	addi	s7,s7,801 # 7654321 <fromhost+0x7653e21>
 328:	01730cb3          	add	s9,t1,s7
 32c:	0190a023          	sw	s9,0(ra)
 330:	000012b7          	lui	t0,0x1
 334:	23428293          	addi	t0,t0,564 # 1234 <fromhost+0xd34>
 338:	00001b37          	lui	s6,0x1
 33c:	800b0b13          	addi	s6,s6,-2048 # 800 <fromhost+0x300>
 340:	01628d33          	add	s10,t0,s6
 344:	01a0a223          	sw	s10,4(ra)
 348:	80000237          	lui	tp,0x80000
 34c:	00000a93          	li	s5,0
 350:	01520db3          	add	s11,tp,s5
 354:	01b0a423          	sw	s11,8(ra)
 358:	fffff1b7          	lui	gp,0xfffff
 35c:	dcc18193          	addi	gp,gp,-564 # ffffedcc <_end+0xbfffebc8>
 360:	7ff00a13          	li	s4,2047
 364:	01418e33          	add	t3,gp,s4
 368:	01c0a623          	sw	t3,12(ra)
 36c:	fff00113          	li	sp,-1
 370:	fff00993          	li	s3,-1
 374:	01310eb3          	add	t4,sp,s3
 378:	01d0a823          	sw	t4,16(ra)
 37c:	40000117          	auipc	sp,0x40000
 380:	cfc10113          	addi	sp,sp,-772 # 40000078 <test_7_res>
 384:	80100093          	li	ra,-2047
 388:	00100913          	li	s2,1
 38c:	01208f33          	add	t5,ra,s2
 390:	01e12023          	sw	t5,0(sp)
 394:	00000013          	nop
 398:	00000893          	li	a7,0
 39c:	01100fb3          	add	t6,zero,a7
 3a0:	01f12223          	sw	t6,4(sp)
 3a4:	00100793          	li	a5,1
 3a8:	60f02023          	sw	a5,1536(zero) # 600 <fromhost+0x100>

000003ac <end_testcode>:
 3ac:	00100073          	ebreak
	...

Disassembly of section .tohost:

00000400 <tohost>:
	...

00000500 <fromhost>:
	...
