
/home/IC/project/github/starsea_riscv/riscv-compliance-master/work/rv32i/I-ECALL-01.elf:     file format elf32-littleriscv


Disassembly of section .text.init:

00000000 <_start>:
   0:	40000297          	auipc	t0,0x40000
   4:	00028293          	mv	t0,t0
   8:	50502423          	sw	t0,1288(zero) # 508 <fromhost+0x208>
   c:	40000297          	auipc	t0,0x40000
  10:	00428293          	addi	t0,t0,4 # 40000010 <end_signature>
  14:	50502623          	sw	t0,1292(zero) # 50c <fromhost+0x20c>
  18:	0480006f          	j	60 <reset_vector>

0000001c <trap_vector>:
  1c:	34202f73          	csrr	t5,mcause
  20:	00800f93          	li	t6,8
  24:	03ff0a63          	beq	t5,t6,58 <write_tohost>
  28:	00900f93          	li	t6,9
  2c:	03ff0663          	beq	t5,t6,58 <write_tohost>
  30:	00b00f93          	li	t6,11
  34:	03ff0263          	beq	t5,t6,58 <write_tohost>
  38:	00000f17          	auipc	t5,0x0
  3c:	fc8f0f13          	addi	t5,t5,-56 # 0 <_start>
  40:	000f0463          	beqz	t5,48 <trap_vector+0x2c>
  44:	000f0067          	jr	t5
  48:	34202f73          	csrr	t5,mcause
  4c:	000f5463          	bgez	t5,54 <handle_exception>
  50:	0040006f          	j	54 <handle_exception>

00000054 <handle_exception>:
  54:	5391e193          	ori	gp,gp,1337

00000058 <write_tohost>:
  58:	20302023          	sw	gp,512(zero) # 200 <tohost>
  5c:	ffdff06f          	j	58 <write_tohost>

00000060 <reset_vector>:
  60:	f1402573          	csrr	a0,mhartid
  64:	00051063          	bnez	a0,64 <reset_vector+0x4>
  68:	00000297          	auipc	t0,0x0
  6c:	01028293          	addi	t0,t0,16 # 78 <reset_vector+0x18>
  70:	30529073          	csrw	mtvec,t0
  74:	18005073          	csrwi	satp,0
  78:	00000297          	auipc	t0,0x0
  7c:	01c28293          	addi	t0,t0,28 # 94 <reset_vector+0x34>
  80:	30529073          	csrw	mtvec,t0
  84:	fff00293          	li	t0,-1
  88:	3b029073          	csrw	pmpaddr0,t0
  8c:	01f00293          	li	t0,31
  90:	3a029073          	csrw	pmpcfg0,t0
  94:	00000297          	auipc	t0,0x0
  98:	01828293          	addi	t0,t0,24 # ac <reset_vector+0x4c>
  9c:	30529073          	csrw	mtvec,t0
  a0:	30205073          	csrwi	medeleg,0
  a4:	30305073          	csrwi	mideleg,0
  a8:	30405073          	csrwi	mie,0
  ac:	00000193          	li	gp,0
  b0:	00000297          	auipc	t0,0x0
  b4:	f6c28293          	addi	t0,t0,-148 # 1c <trap_vector>
  b8:	30529073          	csrw	mtvec,t0
  bc:	00100513          	li	a0,1
  c0:	01f51513          	slli	a0,a0,0x1f
  c4:	00054863          	bltz	a0,d4 <reset_vector+0x74>
  c8:	0ff0000f          	fence
  cc:	00100193          	li	gp,1
  d0:	00000073          	ecall
  d4:	00000297          	auipc	t0,0x0
  d8:	f2c28293          	addi	t0,t0,-212 # 0 <_start>
  dc:	00028e63          	beqz	t0,f8 <reset_vector+0x98>
  e0:	10529073          	csrw	stvec,t0
  e4:	0000b2b7          	lui	t0,0xb
  e8:	10928293          	addi	t0,t0,265 # b109 <fromhost+0xae09>
  ec:	30229073          	csrw	medeleg,t0
  f0:	30202373          	csrr	t1,medeleg
  f4:	f66290e3          	bne	t0,t1,54 <handle_exception>
  f8:	30005073          	csrwi	mstatus,0
  fc:	00002537          	lui	a0,0x2
 100:	80050513          	addi	a0,a0,-2048 # 1800 <fromhost+0x1500>
 104:	30052073          	csrs	mstatus,a0
 108:	00000297          	auipc	t0,0x0
 10c:	01428293          	addi	t0,t0,20 # 11c <begin_testcode>
 110:	34129073          	csrw	mepc,t0
 114:	f1402573          	csrr	a0,mhartid
 118:	30200073          	mret

0000011c <begin_testcode>:
 11c:	00000097          	auipc	ra,0x0
 120:	02c08093          	addi	ra,ra,44 # 148 <_trap_handler>
 124:	30509ff3          	csrrw	t6,mtvec,ra
 128:	40000097          	auipc	ra,0x40000
 12c:	ed808093          	addi	ra,ra,-296 # 40000000 <begin_signature>
 130:	11111137          	lui	sp,0x11111
 134:	11110113          	addi	sp,sp,273 # 11111111 <fromhost+0x11110e11>
 138:	00000073          	ecall
 13c:	0000a023          	sw	zero,0(ra)
 140:	305f9073          	csrw	mtvec,t6
 144:	0280006f          	j	16c <test_end>

00000148 <_trap_handler>:
 148:	34102f73          	csrr	t5,mepc
 14c:	004f0f13          	addi	t5,t5,4
 150:	341f1073          	csrw	mepc,t5
 154:	34202f73          	csrr	t5,mcause
 158:	01e0a023          	sw	t5,0(ra)
 15c:	0020a223          	sw	sp,4(ra)
 160:	0000a423          	sw	zero,8(ra)
 164:	00c08093          	addi	ra,ra,12
 168:	30200073          	mret

0000016c <test_end>:
 16c:	00100793          	li	a5,1
 170:	60f02023          	sw	a5,1536(zero) # 600 <fromhost+0x300>

00000174 <end_testcode>:
 174:	00100073          	ebreak
	...

Disassembly of section .tohost:

00000200 <tohost>:
	...

00000300 <fromhost>:
	...
