
/home/IC/project/github/starsea_riscv/riscv-compliance-master/work/rv32i/I-SRL-01.elf:     file format elf32-littleriscv


Disassembly of section .text.init:

00000000 <_start>:
   0:	40000297          	auipc	t0,0x40000
   4:	00028293          	mv	t0,t0
   8:	50502423          	sw	t0,1288(zero) # 508 <fromhost+0x8>
   c:	40000297          	auipc	t0,0x40000
  10:	08428293          	addi	t0,t0,132 # 40000090 <end_signature>
  14:	50502623          	sw	t0,1292(zero) # 50c <fromhost+0xc>
  18:	0480006f          	j	60 <reset_vector>

0000001c <trap_vector>:
  1c:	34202f73          	csrr	t5,mcause
  20:	00800f93          	li	t6,8
  24:	03ff0a63          	beq	t5,t6,58 <write_tohost>
  28:	00900f93          	li	t6,9
  2c:	03ff0663          	beq	t5,t6,58 <write_tohost>
  30:	00b00f93          	li	t6,11
  34:	03ff0263          	beq	t5,t6,58 <write_tohost>
  38:	00000f17          	auipc	t5,0x0
  3c:	fc8f0f13          	addi	t5,t5,-56 # 0 <_start>
  40:	000f0463          	beqz	t5,48 <trap_vector+0x2c>
  44:	000f0067          	jr	t5
  48:	34202f73          	csrr	t5,mcause
  4c:	000f5463          	bgez	t5,54 <handle_exception>
  50:	0040006f          	j	54 <handle_exception>

00000054 <handle_exception>:
  54:	5391e193          	ori	gp,gp,1337

00000058 <write_tohost>:
  58:	40302023          	sw	gp,1024(zero) # 400 <tohost>
  5c:	ffdff06f          	j	58 <write_tohost>

00000060 <reset_vector>:
  60:	f1402573          	csrr	a0,mhartid
  64:	00051063          	bnez	a0,64 <reset_vector+0x4>
  68:	00000297          	auipc	t0,0x0
  6c:	01028293          	addi	t0,t0,16 # 78 <reset_vector+0x18>
  70:	30529073          	csrw	mtvec,t0
  74:	18005073          	csrwi	satp,0
  78:	00000297          	auipc	t0,0x0
  7c:	01c28293          	addi	t0,t0,28 # 94 <reset_vector+0x34>
  80:	30529073          	csrw	mtvec,t0
  84:	fff00293          	li	t0,-1
  88:	3b029073          	csrw	pmpaddr0,t0
  8c:	01f00293          	li	t0,31
  90:	3a029073          	csrw	pmpcfg0,t0
  94:	00000297          	auipc	t0,0x0
  98:	01828293          	addi	t0,t0,24 # ac <reset_vector+0x4c>
  9c:	30529073          	csrw	mtvec,t0
  a0:	30205073          	csrwi	medeleg,0
  a4:	30305073          	csrwi	mideleg,0
  a8:	30405073          	csrwi	mie,0
  ac:	00000193          	li	gp,0
  b0:	00000297          	auipc	t0,0x0
  b4:	f6c28293          	addi	t0,t0,-148 # 1c <trap_vector>
  b8:	30529073          	csrw	mtvec,t0
  bc:	00100513          	li	a0,1
  c0:	01f51513          	slli	a0,a0,0x1f
  c4:	00054863          	bltz	a0,d4 <reset_vector+0x74>
  c8:	0ff0000f          	fence
  cc:	00100193          	li	gp,1
  d0:	00000073          	ecall
  d4:	00000297          	auipc	t0,0x0
  d8:	f2c28293          	addi	t0,t0,-212 # 0 <_start>
  dc:	00028e63          	beqz	t0,f8 <reset_vector+0x98>
  e0:	10529073          	csrw	stvec,t0
  e4:	0000b2b7          	lui	t0,0xb
  e8:	10928293          	addi	t0,t0,265 # b109 <fromhost+0xac09>
  ec:	30229073          	csrw	medeleg,t0
  f0:	30202373          	csrr	t1,medeleg
  f4:	f66290e3          	bne	t0,t1,54 <handle_exception>
  f8:	30005073          	csrwi	mstatus,0
  fc:	00002537          	lui	a0,0x2
 100:	80050513          	addi	a0,a0,-2048 # 1800 <fromhost+0x1300>
 104:	30052073          	csrs	mstatus,a0
 108:	00000297          	auipc	t0,0x0
 10c:	01428293          	addi	t0,t0,20 # 11c <begin_testcode>
 110:	34129073          	csrw	mepc,t0
 114:	f1402573          	csrr	a0,mhartid
 118:	30200073          	mret

0000011c <begin_testcode>:
 11c:	40000297          	auipc	t0,0x40000
 120:	ee428293          	addi	t0,t0,-284 # 40000000 <begin_signature>
 124:	fff00f93          	li	t6,-1
 128:	00000813          	li	a6,0
 12c:	010fd033          	srl	zero,t6,a6
 130:	0002a023          	sw	zero,0(t0)
 134:	00100f13          	li	t5,1
 138:	00000793          	li	a5,0
 13c:	00ff50b3          	srl	ra,t5,a5
 140:	0012a223          	sw	ra,4(t0)
 144:	00000e93          	li	t4,0
 148:	00100713          	li	a4,1
 14c:	00eed133          	srl	sp,t4,a4
 150:	0022a423          	sw	sp,8(t0)
 154:	7ff00e13          	li	t3,2047
 158:	00400693          	li	a3,4
 15c:	00de51b3          	srl	gp,t3,a3
 160:	0032a623          	sw	gp,12(t0)
 164:	00000d93          	li	s11,0
 168:	00800613          	li	a2,8
 16c:	00cdd233          	srl	tp,s11,a2
 170:	0042a823          	sw	tp,16(t0)
 174:	40000097          	auipc	ra,0x40000
 178:	ea008093          	addi	ra,ra,-352 # 40000014 <test_2_res>
 17c:	00001d37          	lui	s10,0x1
 180:	800d0d13          	addi	s10,s10,-2048 # 800 <fromhost+0x300>
 184:	01f00593          	li	a1,31
 188:	00bd52b3          	srl	t0,s10,a1
 18c:	0050a023          	sw	t0,0(ra)
 190:	07654cb7          	lui	s9,0x7654
 194:	321c8c93          	addi	s9,s9,801 # 7654321 <fromhost+0x7653e21>
 198:	01000513          	li	a0,16
 19c:	00acd333          	srl	t1,s9,a0
 1a0:	0060a223          	sw	t1,4(ra)
 1a4:	80000c37          	lui	s8,0x80000
 1a8:	fffc0c13          	addi	s8,s8,-1 # 7fffffff <_end+0x3ffffdfb>
 1ac:	00100493          	li	s1,1
 1b0:	009c53b3          	srl	t2,s8,s1
 1b4:	0070a423          	sw	t2,8(ra)
 1b8:	00100b93          	li	s7,1
 1bc:	00000413          	li	s0,0
 1c0:	008bd433          	srl	s0,s7,s0
 1c4:	0080a623          	sw	s0,12(ra)
 1c8:	fff00b13          	li	s6,-1
 1cc:	00000393          	li	t2,0
 1d0:	007b54b3          	srl	s1,s6,t2
 1d4:	0090a823          	sw	s1,16(ra)
 1d8:	40000097          	auipc	ra,0x40000
 1dc:	e5008093          	addi	ra,ra,-432 # 40000028 <test_3_res>
 1e0:	00001ab7          	lui	s5,0x1
 1e4:	234a8a93          	addi	s5,s5,564 # 1234 <fromhost+0xd34>
 1e8:	00100313          	li	t1,1
 1ec:	006ad533          	srl	a0,s5,t1
 1f0:	00a0a023          	sw	a0,0(ra)
 1f4:	80000a37          	lui	s4,0x80000
 1f8:	00400293          	li	t0,4
 1fc:	005a55b3          	srl	a1,s4,t0
 200:	00b0a223          	sw	a1,4(ra)
 204:	fffff9b7          	lui	s3,0xfffff
 208:	dcc98993          	addi	s3,s3,-564 # ffffedcc <_end+0xbfffebc8>
 20c:	00800213          	li	tp,8
 210:	0049d633          	srl	a2,s3,tp
 214:	00c0a423          	sw	a2,8(ra)
 218:	fff00913          	li	s2,-1
 21c:	01f00193          	li	gp,31
 220:	003956b3          	srl	a3,s2,gp
 224:	00d0a623          	sw	a3,12(ra)
 228:	80100893          	li	a7,-2047
 22c:	01000113          	li	sp,16
 230:	0028d733          	srl	a4,a7,sp
 234:	00e0a823          	sw	a4,16(ra)
 238:	40000117          	auipc	sp,0x40000
 23c:	e0410113          	addi	sp,sp,-508 # 4000003c <test_4_res>
 240:	00000813          	li	a6,0
 244:	00100093          	li	ra,1
 248:	001857b3          	srl	a5,a6,ra
 24c:	00f12023          	sw	a5,0(sp)
 250:	fff00793          	li	a5,-1
 254:	00000013          	nop
 258:	0007d833          	srl	a6,a5,zero
 25c:	01012223          	sw	a6,4(sp)
 260:	00100713          	li	a4,1
 264:	00000f93          	li	t6,0
 268:	01f758b3          	srl	a7,a4,t6
 26c:	01112423          	sw	a7,8(sp)
 270:	00000693          	li	a3,0
 274:	00100f13          	li	t5,1
 278:	01e6d933          	srl	s2,a3,t5
 27c:	01212623          	sw	s2,12(sp)
 280:	7ff00613          	li	a2,2047
 284:	00400e93          	li	t4,4
 288:	01d659b3          	srl	s3,a2,t4
 28c:	01312823          	sw	s3,16(sp)
 290:	40000097          	auipc	ra,0x40000
 294:	dc008093          	addi	ra,ra,-576 # 40000050 <test_5_res>
 298:	00000593          	li	a1,0
 29c:	00800e13          	li	t3,8
 2a0:	01c5da33          	srl	s4,a1,t3
 2a4:	0140a023          	sw	s4,0(ra)
 2a8:	00001537          	lui	a0,0x1
 2ac:	80050513          	addi	a0,a0,-2048 # 800 <fromhost+0x300>
 2b0:	01f00d93          	li	s11,31
 2b4:	01b55ab3          	srl	s5,a0,s11
 2b8:	0150a223          	sw	s5,4(ra)
 2bc:	076544b7          	lui	s1,0x7654
 2c0:	32148493          	addi	s1,s1,801 # 7654321 <fromhost+0x7653e21>
 2c4:	01000d13          	li	s10,16
 2c8:	01a4db33          	srl	s6,s1,s10
 2cc:	0160a423          	sw	s6,8(ra)
 2d0:	80000437          	lui	s0,0x80000
 2d4:	fff40413          	addi	s0,s0,-1 # 7fffffff <_end+0x3ffffdfb>
 2d8:	00100c93          	li	s9,1
 2dc:	01945bb3          	srl	s7,s0,s9
 2e0:	0170a623          	sw	s7,12(ra)
 2e4:	00100393          	li	t2,1
 2e8:	00000c13          	li	s8,0
 2ec:	0183dc33          	srl	s8,t2,s8
 2f0:	0180a823          	sw	s8,16(ra)
 2f4:	40000097          	auipc	ra,0x40000
 2f8:	d7008093          	addi	ra,ra,-656 # 40000064 <test_6_res>
 2fc:	fff00313          	li	t1,-1
 300:	00000b93          	li	s7,0
 304:	01735cb3          	srl	s9,t1,s7
 308:	0190a023          	sw	s9,0(ra)
 30c:	000012b7          	lui	t0,0x1
 310:	23428293          	addi	t0,t0,564 # 1234 <fromhost+0xd34>
 314:	00100b13          	li	s6,1
 318:	0162dd33          	srl	s10,t0,s6
 31c:	01a0a223          	sw	s10,4(ra)
 320:	80000237          	lui	tp,0x80000
 324:	00400a93          	li	s5,4
 328:	01525db3          	srl	s11,tp,s5
 32c:	01b0a423          	sw	s11,8(ra)
 330:	fffff1b7          	lui	gp,0xfffff
 334:	dcc18193          	addi	gp,gp,-564 # ffffedcc <_end+0xbfffebc8>
 338:	00800a13          	li	s4,8
 33c:	0141de33          	srl	t3,gp,s4
 340:	01c0a623          	sw	t3,12(ra)
 344:	fff00113          	li	sp,-1
 348:	01f00993          	li	s3,31
 34c:	01315eb3          	srl	t4,sp,s3
 350:	01d0a823          	sw	t4,16(ra)
 354:	40000117          	auipc	sp,0x40000
 358:	d2410113          	addi	sp,sp,-732 # 40000078 <test_7_res>
 35c:	80100093          	li	ra,-2047
 360:	01000913          	li	s2,16
 364:	0120df33          	srl	t5,ra,s2
 368:	01e12023          	sw	t5,0(sp)
 36c:	00000013          	nop
 370:	00100893          	li	a7,1
 374:	01105fb3          	srl	t6,zero,a7
 378:	01f12223          	sw	t6,4(sp)
 37c:	00100793          	li	a5,1
 380:	60f02023          	sw	a5,1536(zero) # 600 <fromhost+0x100>

00000384 <end_testcode>:
 384:	00100073          	ebreak
	...

Disassembly of section .tohost:

00000400 <tohost>:
	...

00000500 <fromhost>:
	...
