
test.elf:     file format elf32-littleriscv


Disassembly of section .text:

00000000 <_start>:
       0:	40001137          	lui	sp,0x40001
       4:	00000297          	auipc	t0,0x0
       8:	01028293          	addi	t0,t0,16 # 14 <_trap_handler>
       c:	30529073          	csrw	mtvec,t0
      10:	100000ef          	jal	ra,110 <main>

00000014 <_trap_handler>:
      14:	f8810113          	addi	sp,sp,-120 # 40000f88 <_end+0xc24>
      18:	00112023          	sw	ra,0(sp)
      1c:	00312223          	sw	gp,4(sp)
      20:	00412423          	sw	tp,8(sp)
      24:	00512623          	sw	t0,12(sp)
      28:	00612823          	sw	t1,16(sp)
      2c:	00712a23          	sw	t2,20(sp)
      30:	00812c23          	sw	s0,24(sp)
      34:	00912e23          	sw	s1,28(sp)
      38:	02a12023          	sw	a0,32(sp)
      3c:	02b12223          	sw	a1,36(sp)
      40:	02c12423          	sw	a2,40(sp)
      44:	02d12623          	sw	a3,44(sp)
      48:	02e12823          	sw	a4,48(sp)
      4c:	02f12a23          	sw	a5,52(sp)
      50:	03012c23          	sw	a6,56(sp)
      54:	03112e23          	sw	a7,60(sp)
      58:	05212023          	sw	s2,64(sp)
      5c:	05312223          	sw	s3,68(sp)
      60:	05412423          	sw	s4,72(sp)
      64:	05512623          	sw	s5,76(sp)
      68:	05612823          	sw	s6,80(sp)
      6c:	05712a23          	sw	s7,84(sp)
      70:	05812c23          	sw	s8,88(sp)
      74:	05912e23          	sw	s9,92(sp)
      78:	06912023          	sw	s1,96(sp)
      7c:	06912223          	sw	s1,100(sp)
      80:	07c12423          	sw	t3,104(sp)
      84:	07d12623          	sw	t4,108(sp)
      88:	07e12823          	sw	t5,112(sp)
      8c:	07f12a23          	sw	t6,116(sp)
      90:	12c000ef          	jal	ra,1bc <isr>
      94:	07412f83          	lw	t6,116(sp)
      98:	07012f03          	lw	t5,112(sp)
      9c:	06c12e83          	lw	t4,108(sp)
      a0:	06812e03          	lw	t3,104(sp)
      a4:	06412483          	lw	s1,100(sp)
      a8:	06012483          	lw	s1,96(sp)
      ac:	05c12c83          	lw	s9,92(sp)
      b0:	05812c03          	lw	s8,88(sp)
      b4:	05412b83          	lw	s7,84(sp)
      b8:	05012b03          	lw	s6,80(sp)
      bc:	04c12a83          	lw	s5,76(sp)
      c0:	04812a03          	lw	s4,72(sp)
      c4:	04412983          	lw	s3,68(sp)
      c8:	04012903          	lw	s2,64(sp)
      cc:	03c12883          	lw	a7,60(sp)
      d0:	03812803          	lw	a6,56(sp)
      d4:	03412783          	lw	a5,52(sp)
      d8:	03012703          	lw	a4,48(sp)
      dc:	02c12683          	lw	a3,44(sp)
      e0:	02812603          	lw	a2,40(sp)
      e4:	02412583          	lw	a1,36(sp)
      e8:	02012503          	lw	a0,32(sp)
      ec:	01c12483          	lw	s1,28(sp)
      f0:	01812403          	lw	s0,24(sp)
      f4:	01412383          	lw	t2,20(sp)
      f8:	01012303          	lw	t1,16(sp)
      fc:	00c12283          	lw	t0,12(sp)
     100:	00812203          	lw	tp,8(sp)
     104:	00412183          	lw	gp,4(sp)
     108:	00012083          	lw	ra,0(sp)
     10c:	30200073          	mret

00000110 <main>:
     110:	fd010113          	addi	sp,sp,-48
     114:	02112623          	sw	ra,44(sp)
     118:	02812423          	sw	s0,40(sp)
     11c:	03010413          	addi	s0,sp,48
     120:	400007b7          	lui	a5,0x40000
     124:	01878513          	addi	a0,a5,24 # 40000018 <upper_digits+0x4>
     128:	148010ef          	jal	ra,1270 <ee_printf>
     12c:	800007b7          	lui	a5,0x80000
     130:	fef42623          	sw	a5,-20(s0)
     134:	800007b7          	lui	a5,0x80000
     138:	00478793          	addi	a5,a5,4 # 80000004 <_end+0x3ffffca0>
     13c:	fef42423          	sw	a5,-24(s0)
     140:	00200793          	li	a5,2
     144:	fef42223          	sw	a5,-28(s0)
     148:	fec42783          	lw	a5,-20(s0)
     14c:	0007a783          	lw	a5,0(a5)
     150:	fef42023          	sw	a5,-32(s0)
     154:	fe842783          	lw	a5,-24(s0)
     158:	0007a783          	lw	a5,0(a5)
     15c:	fcf42e23          	sw	a5,-36(s0)
     160:	fdc42583          	lw	a1,-36(s0)
     164:	fe042503          	lw	a0,-32(s0)
     168:	718010ef          	jal	ra,1880 <__mulsi3>
     16c:	00050793          	mv	a5,a0
     170:	00179713          	slli	a4,a5,0x1
     174:	fe442783          	lw	a5,-28(s0)
     178:	00f70733          	add	a4,a4,a5
     17c:	fec42783          	lw	a5,-20(s0)
     180:	00e7a023          	sw	a4,0(a5)
     184:	fdc42583          	lw	a1,-36(s0)
     188:	fe042503          	lw	a0,-32(s0)
     18c:	6f4010ef          	jal	ra,1880 <__mulsi3>
     190:	00050793          	mv	a5,a0
     194:	00179793          	slli	a5,a5,0x1
     198:	00078593          	mv	a1,a5
     19c:	400007b7          	lui	a5,0x40000
     1a0:	04078513          	addi	a0,a5,64 # 40000040 <upper_digits+0x2c>
     1a4:	0cc010ef          	jal	ra,1270 <ee_printf>
     1a8:	400007b7          	lui	a5,0x40000
     1ac:	04c78513          	addi	a0,a5,76 # 4000004c <upper_digits+0x38>
     1b0:	0c0010ef          	jal	ra,1270 <ee_printf>
     1b4:	3a0010ef          	jal	ra,1554 <led_init>
     1b8:	0000006f          	j	1b8 <main+0xa8>

000001bc <isr>:
     1bc:	fe010113          	addi	sp,sp,-32
     1c0:	00112e23          	sw	ra,28(sp)
     1c4:	00812c23          	sw	s0,24(sp)
     1c8:	02010413          	addi	s0,sp,32
     1cc:	400007b7          	lui	a5,0x40000
     1d0:	0007a783          	lw	a5,0(a5) # 40000000 <uart_rx_intr_flag>
     1d4:	0007a703          	lw	a4,0(a5)
     1d8:	00100793          	li	a5,1
     1dc:	10f71463          	bne	a4,a5,2e4 <isr+0x128>
     1e0:	400007b7          	lui	a5,0x40000
     1e4:	0087a783          	lw	a5,8(a5) # 40000008 <uart_rx_data>
     1e8:	0007a703          	lw	a4,0(a5)
     1ec:	00a00793          	li	a5,10
     1f0:	04f70663          	beq	a4,a5,23c <isr+0x80>
     1f4:	400007b7          	lui	a5,0x40000
     1f8:	0087a783          	lw	a5,8(a5) # 40000008 <uart_rx_data>
     1fc:	0007a703          	lw	a4,0(a5)
     200:	400007b7          	lui	a5,0x40000
     204:	3647c783          	lbu	a5,868(a5) # 40000364 <_end>
     208:	00078693          	mv	a3,a5
     20c:	0ff77713          	andi	a4,a4,255
     210:	400007b7          	lui	a5,0x40000
     214:	35478793          	addi	a5,a5,852 # 40000354 <uart_rx_buffer>
     218:	00d787b3          	add	a5,a5,a3
     21c:	00e78023          	sb	a4,0(a5)
     220:	400007b7          	lui	a5,0x40000
     224:	3647c783          	lbu	a5,868(a5) # 40000364 <_end>
     228:	00178793          	addi	a5,a5,1
     22c:	0ff7f713          	andi	a4,a5,255
     230:	400007b7          	lui	a5,0x40000
     234:	36e78223          	sb	a4,868(a5) # 40000364 <_end>
     238:	09c0006f          	j	2d4 <isr+0x118>
     23c:	400007b7          	lui	a5,0x40000
     240:	3647c783          	lbu	a5,868(a5) # 40000364 <_end>
     244:	00078713          	mv	a4,a5
     248:	400007b7          	lui	a5,0x40000
     24c:	35478793          	addi	a5,a5,852 # 40000354 <uart_rx_buffer>
     250:	00e787b3          	add	a5,a5,a4
     254:	00078023          	sb	zero,0(a5)
     258:	400007b7          	lui	a5,0x40000
     25c:	05478513          	addi	a0,a5,84 # 40000054 <upper_digits+0x40>
     260:	010010ef          	jal	ra,1270 <ee_printf>
     264:	400007b7          	lui	a5,0x40000
     268:	00c7a783          	lw	a5,12(a5) # 4000000c <cmd_str>
     26c:	00078513          	mv	a0,a5
     270:	0b8010ef          	jal	ra,1328 <match_cmd>
     274:	fe042623          	sw	zero,-20(s0)
     278:	0340006f          	j	2ac <isr+0xf0>
     27c:	400007b7          	lui	a5,0x40000
     280:	00c7a703          	lw	a4,12(a5) # 4000000c <cmd_str>
     284:	fec42783          	lw	a5,-20(s0)
     288:	00f707b3          	add	a5,a4,a5
     28c:	0007c783          	lbu	a5,0(a5)
     290:	00078593          	mv	a1,a5
     294:	400007b7          	lui	a5,0x40000
     298:	07478513          	addi	a0,a5,116 # 40000074 <upper_digits+0x60>
     29c:	7d5000ef          	jal	ra,1270 <ee_printf>
     2a0:	fec42783          	lw	a5,-20(s0)
     2a4:	00178793          	addi	a5,a5,1
     2a8:	fef42623          	sw	a5,-20(s0)
     2ac:	400007b7          	lui	a5,0x40000
     2b0:	3647c783          	lbu	a5,868(a5) # 40000364 <_end>
     2b4:	00078713          	mv	a4,a5
     2b8:	fec42783          	lw	a5,-20(s0)
     2bc:	fce7c0e3          	blt	a5,a4,27c <isr+0xc0>
     2c0:	400007b7          	lui	a5,0x40000
     2c4:	07878513          	addi	a0,a5,120 # 40000078 <upper_digits+0x64>
     2c8:	7a9000ef          	jal	ra,1270 <ee_printf>
     2cc:	400007b7          	lui	a5,0x40000
     2d0:	36078223          	sb	zero,868(a5) # 40000364 <_end>
     2d4:	400007b7          	lui	a5,0x40000
     2d8:	0047a783          	lw	a5,4(a5) # 40000004 <uart_rx_intr_flag_clr>
     2dc:	0007a023          	sw	zero,0(a5)
     2e0:	0100006f          	j	2f0 <isr+0x134>
     2e4:	400007b7          	lui	a5,0x40000
     2e8:	07c78513          	addi	a0,a5,124 # 4000007c <upper_digits+0x68>
     2ec:	785000ef          	jal	ra,1270 <ee_printf>
     2f0:	00000013          	nop
     2f4:	01c12083          	lw	ra,28(sp)
     2f8:	01812403          	lw	s0,24(sp)
     2fc:	02010113          	addi	sp,sp,32
     300:	00008067          	ret

00000304 <strnlen>:
     304:	fd010113          	addi	sp,sp,-48
     308:	02812623          	sw	s0,44(sp)
     30c:	03010413          	addi	s0,sp,48
     310:	fca42e23          	sw	a0,-36(s0)
     314:	fcb42c23          	sw	a1,-40(s0)
     318:	fdc42783          	lw	a5,-36(s0)
     31c:	fef42623          	sw	a5,-20(s0)
     320:	0100006f          	j	330 <strnlen+0x2c>
     324:	fec42783          	lw	a5,-20(s0)
     328:	00178793          	addi	a5,a5,1
     32c:	fef42623          	sw	a5,-20(s0)
     330:	fec42783          	lw	a5,-20(s0)
     334:	0007c783          	lbu	a5,0(a5)
     338:	00078a63          	beqz	a5,34c <strnlen+0x48>
     33c:	fd842783          	lw	a5,-40(s0)
     340:	fff78713          	addi	a4,a5,-1
     344:	fce42c23          	sw	a4,-40(s0)
     348:	fc079ee3          	bnez	a5,324 <strnlen+0x20>
     34c:	fec42703          	lw	a4,-20(s0)
     350:	fdc42783          	lw	a5,-36(s0)
     354:	40f707b3          	sub	a5,a4,a5
     358:	00078513          	mv	a0,a5
     35c:	02c12403          	lw	s0,44(sp)
     360:	03010113          	addi	sp,sp,48
     364:	00008067          	ret

00000368 <skip_atoi>:
     368:	fd010113          	addi	sp,sp,-48
     36c:	02812623          	sw	s0,44(sp)
     370:	03010413          	addi	s0,sp,48
     374:	fca42e23          	sw	a0,-36(s0)
     378:	fe042623          	sw	zero,-20(s0)
     37c:	0400006f          	j	3bc <skip_atoi+0x54>
     380:	fec42703          	lw	a4,-20(s0)
     384:	00070793          	mv	a5,a4
     388:	00279793          	slli	a5,a5,0x2
     38c:	00e787b3          	add	a5,a5,a4
     390:	00179793          	slli	a5,a5,0x1
     394:	00078613          	mv	a2,a5
     398:	fdc42783          	lw	a5,-36(s0)
     39c:	0007a783          	lw	a5,0(a5)
     3a0:	00178693          	addi	a3,a5,1
     3a4:	fdc42703          	lw	a4,-36(s0)
     3a8:	00d72023          	sw	a3,0(a4)
     3ac:	0007c783          	lbu	a5,0(a5)
     3b0:	00f607b3          	add	a5,a2,a5
     3b4:	fd078793          	addi	a5,a5,-48
     3b8:	fef42623          	sw	a5,-20(s0)
     3bc:	fdc42783          	lw	a5,-36(s0)
     3c0:	0007a783          	lw	a5,0(a5)
     3c4:	0007c703          	lbu	a4,0(a5)
     3c8:	02f00793          	li	a5,47
     3cc:	00e7fc63          	bgeu	a5,a4,3e4 <skip_atoi+0x7c>
     3d0:	fdc42783          	lw	a5,-36(s0)
     3d4:	0007a783          	lw	a5,0(a5)
     3d8:	0007c703          	lbu	a4,0(a5)
     3dc:	03900793          	li	a5,57
     3e0:	fae7f0e3          	bgeu	a5,a4,380 <skip_atoi+0x18>
     3e4:	fec42783          	lw	a5,-20(s0)
     3e8:	00078513          	mv	a0,a5
     3ec:	02c12403          	lw	s0,44(sp)
     3f0:	03010113          	addi	sp,sp,48
     3f4:	00008067          	ret

000003f8 <number>:
     3f8:	f8010113          	addi	sp,sp,-128
     3fc:	06112e23          	sw	ra,124(sp)
     400:	06812c23          	sw	s0,120(sp)
     404:	08010413          	addi	s0,sp,128
     408:	f8a42e23          	sw	a0,-100(s0)
     40c:	f8b42c23          	sw	a1,-104(s0)
     410:	f8c42a23          	sw	a2,-108(s0)
     414:	f8d42823          	sw	a3,-112(s0)
     418:	f8e42623          	sw	a4,-116(s0)
     41c:	f8f42423          	sw	a5,-120(s0)
     420:	400007b7          	lui	a5,0x40000
     424:	0107a783          	lw	a5,16(a5) # 40000010 <digits>
     428:	fef42423          	sw	a5,-24(s0)
     42c:	f8842783          	lw	a5,-120(s0)
     430:	0407f793          	andi	a5,a5,64
     434:	00078863          	beqz	a5,444 <number+0x4c>
     438:	400007b7          	lui	a5,0x40000
     43c:	0147a783          	lw	a5,20(a5) # 40000014 <upper_digits>
     440:	fef42423          	sw	a5,-24(s0)
     444:	f8842783          	lw	a5,-120(s0)
     448:	0107f793          	andi	a5,a5,16
     44c:	00078863          	beqz	a5,45c <number+0x64>
     450:	f8842783          	lw	a5,-120(s0)
     454:	ffe7f793          	andi	a5,a5,-2
     458:	f8f42423          	sw	a5,-120(s0)
     45c:	f9442703          	lw	a4,-108(s0)
     460:	00100793          	li	a5,1
     464:	00e7d863          	bge	a5,a4,474 <number+0x7c>
     468:	f9442703          	lw	a4,-108(s0)
     46c:	02400793          	li	a5,36
     470:	00e7d663          	bge	a5,a4,47c <number+0x84>
     474:	00000793          	li	a5,0
     478:	3100006f          	j	788 <number+0x390>
     47c:	f8842783          	lw	a5,-120(s0)
     480:	0017f793          	andi	a5,a5,1
     484:	00078663          	beqz	a5,490 <number+0x98>
     488:	03000793          	li	a5,48
     48c:	0080006f          	j	494 <number+0x9c>
     490:	02000793          	li	a5,32
     494:	fef401a3          	sb	a5,-29(s0)
     498:	fe0407a3          	sb	zero,-17(s0)
     49c:	f8842783          	lw	a5,-120(s0)
     4a0:	0027f793          	andi	a5,a5,2
     4a4:	06078a63          	beqz	a5,518 <number+0x120>
     4a8:	f9842783          	lw	a5,-104(s0)
     4ac:	0207d463          	bgez	a5,4d4 <number+0xdc>
     4b0:	02d00793          	li	a5,45
     4b4:	fef407a3          	sb	a5,-17(s0)
     4b8:	f9842783          	lw	a5,-104(s0)
     4bc:	40f007b3          	neg	a5,a5
     4c0:	f8f42c23          	sw	a5,-104(s0)
     4c4:	f9042783          	lw	a5,-112(s0)
     4c8:	fff78793          	addi	a5,a5,-1
     4cc:	f8f42823          	sw	a5,-112(s0)
     4d0:	0480006f          	j	518 <number+0x120>
     4d4:	f8842783          	lw	a5,-120(s0)
     4d8:	0047f793          	andi	a5,a5,4
     4dc:	00078e63          	beqz	a5,4f8 <number+0x100>
     4e0:	02b00793          	li	a5,43
     4e4:	fef407a3          	sb	a5,-17(s0)
     4e8:	f9042783          	lw	a5,-112(s0)
     4ec:	fff78793          	addi	a5,a5,-1
     4f0:	f8f42823          	sw	a5,-112(s0)
     4f4:	0240006f          	j	518 <number+0x120>
     4f8:	f8842783          	lw	a5,-120(s0)
     4fc:	0087f793          	andi	a5,a5,8
     500:	00078c63          	beqz	a5,518 <number+0x120>
     504:	02000793          	li	a5,32
     508:	fef407a3          	sb	a5,-17(s0)
     50c:	f9042783          	lw	a5,-112(s0)
     510:	fff78793          	addi	a5,a5,-1
     514:	f8f42823          	sw	a5,-112(s0)
     518:	f8842783          	lw	a5,-120(s0)
     51c:	0207f793          	andi	a5,a5,32
     520:	02078c63          	beqz	a5,558 <number+0x160>
     524:	f9442703          	lw	a4,-108(s0)
     528:	01000793          	li	a5,16
     52c:	00f71a63          	bne	a4,a5,540 <number+0x148>
     530:	f9042783          	lw	a5,-112(s0)
     534:	ffe78793          	addi	a5,a5,-2
     538:	f8f42823          	sw	a5,-112(s0)
     53c:	01c0006f          	j	558 <number+0x160>
     540:	f9442703          	lw	a4,-108(s0)
     544:	00800793          	li	a5,8
     548:	00f71863          	bne	a4,a5,558 <number+0x160>
     54c:	f9042783          	lw	a5,-112(s0)
     550:	fff78793          	addi	a5,a5,-1
     554:	f8f42823          	sw	a5,-112(s0)
     558:	fe042223          	sw	zero,-28(s0)
     55c:	f9842783          	lw	a5,-104(s0)
     560:	08079063          	bnez	a5,5e0 <number+0x1e8>
     564:	fe442783          	lw	a5,-28(s0)
     568:	00178713          	addi	a4,a5,1
     56c:	fee42223          	sw	a4,-28(s0)
     570:	ff040713          	addi	a4,s0,-16
     574:	00f707b3          	add	a5,a4,a5
     578:	03000713          	li	a4,48
     57c:	fae78823          	sb	a4,-80(a5)
     580:	0680006f          	j	5e8 <number+0x1f0>
     584:	f9842783          	lw	a5,-104(s0)
     588:	f9442703          	lw	a4,-108(s0)
     58c:	00070593          	mv	a1,a4
     590:	00078513          	mv	a0,a5
     594:	360010ef          	jal	ra,18f4 <__umodsi3>
     598:	00050793          	mv	a5,a0
     59c:	00078713          	mv	a4,a5
     5a0:	fe842783          	lw	a5,-24(s0)
     5a4:	00e78733          	add	a4,a5,a4
     5a8:	fe442783          	lw	a5,-28(s0)
     5ac:	00178693          	addi	a3,a5,1
     5b0:	fed42223          	sw	a3,-28(s0)
     5b4:	00074703          	lbu	a4,0(a4)
     5b8:	ff040693          	addi	a3,s0,-16
     5bc:	00f687b3          	add	a5,a3,a5
     5c0:	fae78823          	sb	a4,-80(a5)
     5c4:	f9842783          	lw	a5,-104(s0)
     5c8:	f9442703          	lw	a4,-108(s0)
     5cc:	00070593          	mv	a1,a4
     5d0:	00078513          	mv	a0,a5
     5d4:	2d8010ef          	jal	ra,18ac <__udivsi3>
     5d8:	00050793          	mv	a5,a0
     5dc:	f8f42c23          	sw	a5,-104(s0)
     5e0:	f9842783          	lw	a5,-104(s0)
     5e4:	fa0790e3          	bnez	a5,584 <number+0x18c>
     5e8:	fe442703          	lw	a4,-28(s0)
     5ec:	f8c42783          	lw	a5,-116(s0)
     5f0:	00e7d663          	bge	a5,a4,5fc <number+0x204>
     5f4:	fe442783          	lw	a5,-28(s0)
     5f8:	f8f42623          	sw	a5,-116(s0)
     5fc:	f9042703          	lw	a4,-112(s0)
     600:	f8c42783          	lw	a5,-116(s0)
     604:	40f707b3          	sub	a5,a4,a5
     608:	f8f42823          	sw	a5,-112(s0)
     60c:	f8842783          	lw	a5,-120(s0)
     610:	0117f793          	andi	a5,a5,17
     614:	02079663          	bnez	a5,640 <number+0x248>
     618:	0180006f          	j	630 <number+0x238>
     61c:	f9c42783          	lw	a5,-100(s0)
     620:	00178713          	addi	a4,a5,1
     624:	f8e42e23          	sw	a4,-100(s0)
     628:	02000713          	li	a4,32
     62c:	00e78023          	sb	a4,0(a5)
     630:	f9042783          	lw	a5,-112(s0)
     634:	fff78713          	addi	a4,a5,-1
     638:	f8e42823          	sw	a4,-112(s0)
     63c:	fef040e3          	bgtz	a5,61c <number+0x224>
     640:	fef44783          	lbu	a5,-17(s0)
     644:	00078c63          	beqz	a5,65c <number+0x264>
     648:	f9c42783          	lw	a5,-100(s0)
     64c:	00178713          	addi	a4,a5,1
     650:	f8e42e23          	sw	a4,-100(s0)
     654:	fef44703          	lbu	a4,-17(s0)
     658:	00e78023          	sb	a4,0(a5)
     65c:	f8842783          	lw	a5,-120(s0)
     660:	0207f793          	andi	a5,a5,32
     664:	06078263          	beqz	a5,6c8 <number+0x2d0>
     668:	f9442703          	lw	a4,-108(s0)
     66c:	00800793          	li	a5,8
     670:	00f71e63          	bne	a4,a5,68c <number+0x294>
     674:	f9c42783          	lw	a5,-100(s0)
     678:	00178713          	addi	a4,a5,1
     67c:	f8e42e23          	sw	a4,-100(s0)
     680:	03000713          	li	a4,48
     684:	00e78023          	sb	a4,0(a5)
     688:	0400006f          	j	6c8 <number+0x2d0>
     68c:	f9442703          	lw	a4,-108(s0)
     690:	01000793          	li	a5,16
     694:	02f71a63          	bne	a4,a5,6c8 <number+0x2d0>
     698:	f9c42783          	lw	a5,-100(s0)
     69c:	00178713          	addi	a4,a5,1
     6a0:	f8e42e23          	sw	a4,-100(s0)
     6a4:	03000713          	li	a4,48
     6a8:	00e78023          	sb	a4,0(a5)
     6ac:	400007b7          	lui	a5,0x40000
     6b0:	0107a703          	lw	a4,16(a5) # 40000010 <digits>
     6b4:	f9c42783          	lw	a5,-100(s0)
     6b8:	00178693          	addi	a3,a5,1
     6bc:	f8d42e23          	sw	a3,-100(s0)
     6c0:	02174703          	lbu	a4,33(a4)
     6c4:	00e78023          	sb	a4,0(a5)
     6c8:	f8842783          	lw	a5,-120(s0)
     6cc:	0107f793          	andi	a5,a5,16
     6d0:	04079263          	bnez	a5,714 <number+0x31c>
     6d4:	0180006f          	j	6ec <number+0x2f4>
     6d8:	f9c42783          	lw	a5,-100(s0)
     6dc:	00178713          	addi	a4,a5,1
     6e0:	f8e42e23          	sw	a4,-100(s0)
     6e4:	fe344703          	lbu	a4,-29(s0)
     6e8:	00e78023          	sb	a4,0(a5)
     6ec:	f9042783          	lw	a5,-112(s0)
     6f0:	fff78713          	addi	a4,a5,-1
     6f4:	f8e42823          	sw	a4,-112(s0)
     6f8:	fef040e3          	bgtz	a5,6d8 <number+0x2e0>
     6fc:	0180006f          	j	714 <number+0x31c>
     700:	f9c42783          	lw	a5,-100(s0)
     704:	00178713          	addi	a4,a5,1
     708:	f8e42e23          	sw	a4,-100(s0)
     70c:	03000713          	li	a4,48
     710:	00e78023          	sb	a4,0(a5)
     714:	f8c42783          	lw	a5,-116(s0)
     718:	fff78713          	addi	a4,a5,-1
     71c:	f8e42623          	sw	a4,-116(s0)
     720:	fe442703          	lw	a4,-28(s0)
     724:	fcf74ee3          	blt	a4,a5,700 <number+0x308>
     728:	0240006f          	j	74c <number+0x354>
     72c:	f9c42783          	lw	a5,-100(s0)
     730:	00178713          	addi	a4,a5,1
     734:	f8e42e23          	sw	a4,-100(s0)
     738:	fe442703          	lw	a4,-28(s0)
     73c:	ff040693          	addi	a3,s0,-16
     740:	00e68733          	add	a4,a3,a4
     744:	fb074703          	lbu	a4,-80(a4)
     748:	00e78023          	sb	a4,0(a5)
     74c:	fe442783          	lw	a5,-28(s0)
     750:	fff78713          	addi	a4,a5,-1
     754:	fee42223          	sw	a4,-28(s0)
     758:	fcf04ae3          	bgtz	a5,72c <number+0x334>
     75c:	0180006f          	j	774 <number+0x37c>
     760:	f9c42783          	lw	a5,-100(s0)
     764:	00178713          	addi	a4,a5,1
     768:	f8e42e23          	sw	a4,-100(s0)
     76c:	02000713          	li	a4,32
     770:	00e78023          	sb	a4,0(a5)
     774:	f9042783          	lw	a5,-112(s0)
     778:	fff78713          	addi	a4,a5,-1
     77c:	f8e42823          	sw	a4,-112(s0)
     780:	fef040e3          	bgtz	a5,760 <number+0x368>
     784:	f9c42783          	lw	a5,-100(s0)
     788:	00078513          	mv	a0,a5
     78c:	07c12083          	lw	ra,124(sp)
     790:	07812403          	lw	s0,120(sp)
     794:	08010113          	addi	sp,sp,128
     798:	00008067          	ret

0000079c <eaddr>:
     79c:	fa010113          	addi	sp,sp,-96
     7a0:	04812e23          	sw	s0,92(sp)
     7a4:	06010413          	addi	s0,sp,96
     7a8:	faa42e23          	sw	a0,-68(s0)
     7ac:	fab42c23          	sw	a1,-72(s0)
     7b0:	fac42a23          	sw	a2,-76(s0)
     7b4:	fad42823          	sw	a3,-80(s0)
     7b8:	fae42623          	sw	a4,-84(s0)
     7bc:	400007b7          	lui	a5,0x40000
     7c0:	0107a783          	lw	a5,16(a5) # 40000010 <digits>
     7c4:	fef42623          	sw	a5,-20(s0)
     7c8:	fac42783          	lw	a5,-84(s0)
     7cc:	0407f793          	andi	a5,a5,64
     7d0:	00078863          	beqz	a5,7e0 <eaddr+0x44>
     7d4:	400007b7          	lui	a5,0x40000
     7d8:	0147a783          	lw	a5,20(a5) # 40000014 <upper_digits>
     7dc:	fef42623          	sw	a5,-20(s0)
     7e0:	fe042223          	sw	zero,-28(s0)
     7e4:	fe042423          	sw	zero,-24(s0)
     7e8:	0ac0006f          	j	894 <eaddr+0xf8>
     7ec:	fe842783          	lw	a5,-24(s0)
     7f0:	02078063          	beqz	a5,810 <eaddr+0x74>
     7f4:	fe442783          	lw	a5,-28(s0)
     7f8:	00178713          	addi	a4,a5,1
     7fc:	fee42223          	sw	a4,-28(s0)
     800:	ff040713          	addi	a4,s0,-16
     804:	00f707b3          	add	a5,a4,a5
     808:	03a00713          	li	a4,58
     80c:	fce78e23          	sb	a4,-36(a5)
     810:	fe842783          	lw	a5,-24(s0)
     814:	fb842703          	lw	a4,-72(s0)
     818:	00f707b3          	add	a5,a4,a5
     81c:	0007c783          	lbu	a5,0(a5)
     820:	0047d793          	srli	a5,a5,0x4
     824:	0ff7f793          	andi	a5,a5,255
     828:	00078713          	mv	a4,a5
     82c:	fec42783          	lw	a5,-20(s0)
     830:	00e78733          	add	a4,a5,a4
     834:	fe442783          	lw	a5,-28(s0)
     838:	00178693          	addi	a3,a5,1
     83c:	fed42223          	sw	a3,-28(s0)
     840:	00074703          	lbu	a4,0(a4)
     844:	ff040693          	addi	a3,s0,-16
     848:	00f687b3          	add	a5,a3,a5
     84c:	fce78e23          	sb	a4,-36(a5)
     850:	fe842783          	lw	a5,-24(s0)
     854:	fb842703          	lw	a4,-72(s0)
     858:	00f707b3          	add	a5,a4,a5
     85c:	0007c783          	lbu	a5,0(a5)
     860:	00f7f793          	andi	a5,a5,15
     864:	fec42703          	lw	a4,-20(s0)
     868:	00f70733          	add	a4,a4,a5
     86c:	fe442783          	lw	a5,-28(s0)
     870:	00178693          	addi	a3,a5,1
     874:	fed42223          	sw	a3,-28(s0)
     878:	00074703          	lbu	a4,0(a4)
     87c:	ff040693          	addi	a3,s0,-16
     880:	00f687b3          	add	a5,a3,a5
     884:	fce78e23          	sb	a4,-36(a5)
     888:	fe842783          	lw	a5,-24(s0)
     88c:	00178793          	addi	a5,a5,1
     890:	fef42423          	sw	a5,-24(s0)
     894:	fe842703          	lw	a4,-24(s0)
     898:	00500793          	li	a5,5
     89c:	f4e7d8e3          	bge	a5,a4,7ec <eaddr+0x50>
     8a0:	fac42783          	lw	a5,-84(s0)
     8a4:	0107f793          	andi	a5,a5,16
     8a8:	02079863          	bnez	a5,8d8 <eaddr+0x13c>
     8ac:	0180006f          	j	8c4 <eaddr+0x128>
     8b0:	fbc42783          	lw	a5,-68(s0)
     8b4:	00178713          	addi	a4,a5,1
     8b8:	fae42e23          	sw	a4,-68(s0)
     8bc:	02000713          	li	a4,32
     8c0:	00e78023          	sb	a4,0(a5)
     8c4:	fb442783          	lw	a5,-76(s0)
     8c8:	fff78713          	addi	a4,a5,-1
     8cc:	fae42a23          	sw	a4,-76(s0)
     8d0:	fe442703          	lw	a4,-28(s0)
     8d4:	fcf74ee3          	blt	a4,a5,8b0 <eaddr+0x114>
     8d8:	fe042423          	sw	zero,-24(s0)
     8dc:	0300006f          	j	90c <eaddr+0x170>
     8e0:	fbc42783          	lw	a5,-68(s0)
     8e4:	00178713          	addi	a4,a5,1
     8e8:	fae42e23          	sw	a4,-68(s0)
     8ec:	fe842703          	lw	a4,-24(s0)
     8f0:	ff040693          	addi	a3,s0,-16
     8f4:	00e68733          	add	a4,a3,a4
     8f8:	fdc74703          	lbu	a4,-36(a4)
     8fc:	00e78023          	sb	a4,0(a5)
     900:	fe842783          	lw	a5,-24(s0)
     904:	00178793          	addi	a5,a5,1
     908:	fef42423          	sw	a5,-24(s0)
     90c:	fe842703          	lw	a4,-24(s0)
     910:	fe442783          	lw	a5,-28(s0)
     914:	fcf746e3          	blt	a4,a5,8e0 <eaddr+0x144>
     918:	0180006f          	j	930 <eaddr+0x194>
     91c:	fbc42783          	lw	a5,-68(s0)
     920:	00178713          	addi	a4,a5,1
     924:	fae42e23          	sw	a4,-68(s0)
     928:	02000713          	li	a4,32
     92c:	00e78023          	sb	a4,0(a5)
     930:	fb442783          	lw	a5,-76(s0)
     934:	fff78713          	addi	a4,a5,-1
     938:	fae42a23          	sw	a4,-76(s0)
     93c:	fe442703          	lw	a4,-28(s0)
     940:	fcf74ee3          	blt	a4,a5,91c <eaddr+0x180>
     944:	fbc42783          	lw	a5,-68(s0)
     948:	00078513          	mv	a0,a5
     94c:	05c12403          	lw	s0,92(sp)
     950:	06010113          	addi	sp,sp,96
     954:	00008067          	ret

00000958 <iaddr>:
     958:	fa010113          	addi	sp,sp,-96
     95c:	04112e23          	sw	ra,92(sp)
     960:	04812c23          	sw	s0,88(sp)
     964:	04912a23          	sw	s1,84(sp)
     968:	06010413          	addi	s0,sp,96
     96c:	faa42e23          	sw	a0,-68(s0)
     970:	fab42c23          	sw	a1,-72(s0)
     974:	fac42a23          	sw	a2,-76(s0)
     978:	fad42823          	sw	a3,-80(s0)
     97c:	fae42623          	sw	a4,-84(s0)
     980:	fe042223          	sw	zero,-28(s0)
     984:	fe042623          	sw	zero,-20(s0)
     988:	1bc0006f          	j	b44 <iaddr+0x1ec>
     98c:	fec42783          	lw	a5,-20(s0)
     990:	02078063          	beqz	a5,9b0 <iaddr+0x58>
     994:	fe442783          	lw	a5,-28(s0)
     998:	00178713          	addi	a4,a5,1
     99c:	fee42223          	sw	a4,-28(s0)
     9a0:	ff040713          	addi	a4,s0,-16
     9a4:	00f707b3          	add	a5,a4,a5
     9a8:	02e00713          	li	a4,46
     9ac:	fce78e23          	sb	a4,-36(a5)
     9b0:	fec42783          	lw	a5,-20(s0)
     9b4:	fb842703          	lw	a4,-72(s0)
     9b8:	00f707b3          	add	a5,a4,a5
     9bc:	0007c783          	lbu	a5,0(a5)
     9c0:	fef42423          	sw	a5,-24(s0)
     9c4:	fe842783          	lw	a5,-24(s0)
     9c8:	02079663          	bnez	a5,9f4 <iaddr+0x9c>
     9cc:	400007b7          	lui	a5,0x40000
     9d0:	0107a703          	lw	a4,16(a5) # 40000010 <digits>
     9d4:	fe442783          	lw	a5,-28(s0)
     9d8:	00178693          	addi	a3,a5,1
     9dc:	fed42223          	sw	a3,-28(s0)
     9e0:	00074703          	lbu	a4,0(a4)
     9e4:	ff040693          	addi	a3,s0,-16
     9e8:	00f687b3          	add	a5,a3,a5
     9ec:	fce78e23          	sb	a4,-36(a5)
     9f0:	1480006f          	j	b38 <iaddr+0x1e0>
     9f4:	fe842703          	lw	a4,-24(s0)
     9f8:	06300793          	li	a5,99
     9fc:	0ae7d863          	bge	a5,a4,aac <iaddr+0x154>
     a00:	400007b7          	lui	a5,0x40000
     a04:	0107a483          	lw	s1,16(a5) # 40000010 <digits>
     a08:	fe842783          	lw	a5,-24(s0)
     a0c:	06400593          	li	a1,100
     a10:	00078513          	mv	a0,a5
     a14:	691000ef          	jal	ra,18a4 <__divsi3>
     a18:	00050793          	mv	a5,a0
     a1c:	00f48733          	add	a4,s1,a5
     a20:	fe442783          	lw	a5,-28(s0)
     a24:	00178693          	addi	a3,a5,1
     a28:	fed42223          	sw	a3,-28(s0)
     a2c:	00074703          	lbu	a4,0(a4)
     a30:	ff040693          	addi	a3,s0,-16
     a34:	00f687b3          	add	a5,a3,a5
     a38:	fce78e23          	sb	a4,-36(a5)
     a3c:	fe842783          	lw	a5,-24(s0)
     a40:	06400593          	li	a1,100
     a44:	00078513          	mv	a0,a5
     a48:	6e1000ef          	jal	ra,1928 <__modsi3>
     a4c:	00050793          	mv	a5,a0
     a50:	fef42423          	sw	a5,-24(s0)
     a54:	400007b7          	lui	a5,0x40000
     a58:	0107a483          	lw	s1,16(a5) # 40000010 <digits>
     a5c:	fe842783          	lw	a5,-24(s0)
     a60:	00a00593          	li	a1,10
     a64:	00078513          	mv	a0,a5
     a68:	63d000ef          	jal	ra,18a4 <__divsi3>
     a6c:	00050793          	mv	a5,a0
     a70:	00f48733          	add	a4,s1,a5
     a74:	fe442783          	lw	a5,-28(s0)
     a78:	00178693          	addi	a3,a5,1
     a7c:	fed42223          	sw	a3,-28(s0)
     a80:	00074703          	lbu	a4,0(a4)
     a84:	ff040693          	addi	a3,s0,-16
     a88:	00f687b3          	add	a5,a3,a5
     a8c:	fce78e23          	sb	a4,-36(a5)
     a90:	fe842783          	lw	a5,-24(s0)
     a94:	00a00593          	li	a1,10
     a98:	00078513          	mv	a0,a5
     a9c:	68d000ef          	jal	ra,1928 <__modsi3>
     aa0:	00050793          	mv	a5,a0
     aa4:	fef42423          	sw	a5,-24(s0)
     aa8:	0640006f          	j	b0c <iaddr+0x1b4>
     aac:	fe842703          	lw	a4,-24(s0)
     ab0:	00900793          	li	a5,9
     ab4:	04e7dc63          	bge	a5,a4,b0c <iaddr+0x1b4>
     ab8:	400007b7          	lui	a5,0x40000
     abc:	0107a483          	lw	s1,16(a5) # 40000010 <digits>
     ac0:	fe842783          	lw	a5,-24(s0)
     ac4:	00a00593          	li	a1,10
     ac8:	00078513          	mv	a0,a5
     acc:	5d9000ef          	jal	ra,18a4 <__divsi3>
     ad0:	00050793          	mv	a5,a0
     ad4:	00f48733          	add	a4,s1,a5
     ad8:	fe442783          	lw	a5,-28(s0)
     adc:	00178693          	addi	a3,a5,1
     ae0:	fed42223          	sw	a3,-28(s0)
     ae4:	00074703          	lbu	a4,0(a4)
     ae8:	ff040693          	addi	a3,s0,-16
     aec:	00f687b3          	add	a5,a3,a5
     af0:	fce78e23          	sb	a4,-36(a5)
     af4:	fe842783          	lw	a5,-24(s0)
     af8:	00a00593          	li	a1,10
     afc:	00078513          	mv	a0,a5
     b00:	629000ef          	jal	ra,1928 <__modsi3>
     b04:	00050793          	mv	a5,a0
     b08:	fef42423          	sw	a5,-24(s0)
     b0c:	400007b7          	lui	a5,0x40000
     b10:	0107a703          	lw	a4,16(a5) # 40000010 <digits>
     b14:	fe842783          	lw	a5,-24(s0)
     b18:	00f70733          	add	a4,a4,a5
     b1c:	fe442783          	lw	a5,-28(s0)
     b20:	00178693          	addi	a3,a5,1
     b24:	fed42223          	sw	a3,-28(s0)
     b28:	00074703          	lbu	a4,0(a4)
     b2c:	ff040693          	addi	a3,s0,-16
     b30:	00f687b3          	add	a5,a3,a5
     b34:	fce78e23          	sb	a4,-36(a5)
     b38:	fec42783          	lw	a5,-20(s0)
     b3c:	00178793          	addi	a5,a5,1
     b40:	fef42623          	sw	a5,-20(s0)
     b44:	fec42703          	lw	a4,-20(s0)
     b48:	00300793          	li	a5,3
     b4c:	e4e7d0e3          	bge	a5,a4,98c <iaddr+0x34>
     b50:	fac42783          	lw	a5,-84(s0)
     b54:	0107f793          	andi	a5,a5,16
     b58:	02079863          	bnez	a5,b88 <iaddr+0x230>
     b5c:	0180006f          	j	b74 <iaddr+0x21c>
     b60:	fbc42783          	lw	a5,-68(s0)
     b64:	00178713          	addi	a4,a5,1
     b68:	fae42e23          	sw	a4,-68(s0)
     b6c:	02000713          	li	a4,32
     b70:	00e78023          	sb	a4,0(a5)
     b74:	fb442783          	lw	a5,-76(s0)
     b78:	fff78713          	addi	a4,a5,-1
     b7c:	fae42a23          	sw	a4,-76(s0)
     b80:	fe442703          	lw	a4,-28(s0)
     b84:	fcf74ee3          	blt	a4,a5,b60 <iaddr+0x208>
     b88:	fe042623          	sw	zero,-20(s0)
     b8c:	0300006f          	j	bbc <iaddr+0x264>
     b90:	fbc42783          	lw	a5,-68(s0)
     b94:	00178713          	addi	a4,a5,1
     b98:	fae42e23          	sw	a4,-68(s0)
     b9c:	fec42703          	lw	a4,-20(s0)
     ba0:	ff040693          	addi	a3,s0,-16
     ba4:	00e68733          	add	a4,a3,a4
     ba8:	fdc74703          	lbu	a4,-36(a4)
     bac:	00e78023          	sb	a4,0(a5)
     bb0:	fec42783          	lw	a5,-20(s0)
     bb4:	00178793          	addi	a5,a5,1
     bb8:	fef42623          	sw	a5,-20(s0)
     bbc:	fec42703          	lw	a4,-20(s0)
     bc0:	fe442783          	lw	a5,-28(s0)
     bc4:	fcf746e3          	blt	a4,a5,b90 <iaddr+0x238>
     bc8:	0180006f          	j	be0 <iaddr+0x288>
     bcc:	fbc42783          	lw	a5,-68(s0)
     bd0:	00178713          	addi	a4,a5,1
     bd4:	fae42e23          	sw	a4,-68(s0)
     bd8:	02000713          	li	a4,32
     bdc:	00e78023          	sb	a4,0(a5)
     be0:	fb442783          	lw	a5,-76(s0)
     be4:	fff78713          	addi	a4,a5,-1
     be8:	fae42a23          	sw	a4,-76(s0)
     bec:	fe442703          	lw	a4,-28(s0)
     bf0:	fcf74ee3          	blt	a4,a5,bcc <iaddr+0x274>
     bf4:	fbc42783          	lw	a5,-68(s0)
     bf8:	00078513          	mv	a0,a5
     bfc:	05c12083          	lw	ra,92(sp)
     c00:	05812403          	lw	s0,88(sp)
     c04:	05412483          	lw	s1,84(sp)
     c08:	06010113          	addi	sp,sp,96
     c0c:	00008067          	ret

00000c10 <ee_vsprintf>:
     c10:	fb010113          	addi	sp,sp,-80
     c14:	04112623          	sw	ra,76(sp)
     c18:	04812423          	sw	s0,72(sp)
     c1c:	05010413          	addi	s0,sp,80
     c20:	faa42e23          	sw	a0,-68(s0)
     c24:	fab42c23          	sw	a1,-72(s0)
     c28:	fac42a23          	sw	a2,-76(s0)
     c2c:	fbc42783          	lw	a5,-68(s0)
     c30:	fef42023          	sw	a5,-32(s0)
     c34:	5ac0006f          	j	11e0 <ee_vsprintf+0x5d0>
     c38:	fb842783          	lw	a5,-72(s0)
     c3c:	0007c703          	lbu	a4,0(a5)
     c40:	02500793          	li	a5,37
     c44:	02f70063          	beq	a4,a5,c64 <ee_vsprintf+0x54>
     c48:	fb842703          	lw	a4,-72(s0)
     c4c:	fe042783          	lw	a5,-32(s0)
     c50:	00178693          	addi	a3,a5,1
     c54:	fed42023          	sw	a3,-32(s0)
     c58:	00074703          	lbu	a4,0(a4)
     c5c:	00e78023          	sb	a4,0(a5)
     c60:	5740006f          	j	11d4 <ee_vsprintf+0x5c4>
     c64:	fc042c23          	sw	zero,-40(s0)
     c68:	fb842783          	lw	a5,-72(s0)
     c6c:	00178793          	addi	a5,a5,1
     c70:	faf42c23          	sw	a5,-72(s0)
     c74:	fb842783          	lw	a5,-72(s0)
     c78:	0007c783          	lbu	a5,0(a5)
     c7c:	fe078793          	addi	a5,a5,-32
     c80:	01000713          	li	a4,16
     c84:	06f76663          	bltu	a4,a5,cf0 <ee_vsprintf+0xe0>
     c88:	00279713          	slli	a4,a5,0x2
     c8c:	400007b7          	lui	a5,0x40000
     c90:	0f878793          	addi	a5,a5,248 # 400000f8 <upper_digits+0xe4>
     c94:	00f707b3          	add	a5,a4,a5
     c98:	0007a783          	lw	a5,0(a5)
     c9c:	00078067          	jr	a5
     ca0:	fd842783          	lw	a5,-40(s0)
     ca4:	0107e793          	ori	a5,a5,16
     ca8:	fcf42c23          	sw	a5,-40(s0)
     cac:	fbdff06f          	j	c68 <ee_vsprintf+0x58>
     cb0:	fd842783          	lw	a5,-40(s0)
     cb4:	0047e793          	ori	a5,a5,4
     cb8:	fcf42c23          	sw	a5,-40(s0)
     cbc:	fadff06f          	j	c68 <ee_vsprintf+0x58>
     cc0:	fd842783          	lw	a5,-40(s0)
     cc4:	0087e793          	ori	a5,a5,8
     cc8:	fcf42c23          	sw	a5,-40(s0)
     ccc:	f9dff06f          	j	c68 <ee_vsprintf+0x58>
     cd0:	fd842783          	lw	a5,-40(s0)
     cd4:	0207e793          	ori	a5,a5,32
     cd8:	fcf42c23          	sw	a5,-40(s0)
     cdc:	f8dff06f          	j	c68 <ee_vsprintf+0x58>
     ce0:	fd842783          	lw	a5,-40(s0)
     ce4:	0017e793          	ori	a5,a5,1
     ce8:	fcf42c23          	sw	a5,-40(s0)
     cec:	f7dff06f          	j	c68 <ee_vsprintf+0x58>
     cf0:	fff00793          	li	a5,-1
     cf4:	fcf42a23          	sw	a5,-44(s0)
     cf8:	fb842783          	lw	a5,-72(s0)
     cfc:	0007c703          	lbu	a4,0(a5)
     d00:	02f00793          	li	a5,47
     d04:	02e7f463          	bgeu	a5,a4,d2c <ee_vsprintf+0x11c>
     d08:	fb842783          	lw	a5,-72(s0)
     d0c:	0007c703          	lbu	a4,0(a5)
     d10:	03900793          	li	a5,57
     d14:	00e7ec63          	bltu	a5,a4,d2c <ee_vsprintf+0x11c>
     d18:	fb840793          	addi	a5,s0,-72
     d1c:	00078513          	mv	a0,a5
     d20:	e48ff0ef          	jal	ra,368 <skip_atoi>
     d24:	fca42a23          	sw	a0,-44(s0)
     d28:	0540006f          	j	d7c <ee_vsprintf+0x16c>
     d2c:	fb842783          	lw	a5,-72(s0)
     d30:	0007c703          	lbu	a4,0(a5)
     d34:	02a00793          	li	a5,42
     d38:	04f71263          	bne	a4,a5,d7c <ee_vsprintf+0x16c>
     d3c:	fb842783          	lw	a5,-72(s0)
     d40:	00178793          	addi	a5,a5,1
     d44:	faf42c23          	sw	a5,-72(s0)
     d48:	fb442783          	lw	a5,-76(s0)
     d4c:	00478713          	addi	a4,a5,4
     d50:	fae42a23          	sw	a4,-76(s0)
     d54:	0007a783          	lw	a5,0(a5)
     d58:	fcf42a23          	sw	a5,-44(s0)
     d5c:	fd442783          	lw	a5,-44(s0)
     d60:	0007de63          	bgez	a5,d7c <ee_vsprintf+0x16c>
     d64:	fd442783          	lw	a5,-44(s0)
     d68:	40f007b3          	neg	a5,a5
     d6c:	fcf42a23          	sw	a5,-44(s0)
     d70:	fd842783          	lw	a5,-40(s0)
     d74:	0107e793          	ori	a5,a5,16
     d78:	fcf42c23          	sw	a5,-40(s0)
     d7c:	fff00793          	li	a5,-1
     d80:	fcf42823          	sw	a5,-48(s0)
     d84:	fb842783          	lw	a5,-72(s0)
     d88:	0007c703          	lbu	a4,0(a5)
     d8c:	02e00793          	li	a5,46
     d90:	08f71063          	bne	a4,a5,e10 <ee_vsprintf+0x200>
     d94:	fb842783          	lw	a5,-72(s0)
     d98:	00178793          	addi	a5,a5,1
     d9c:	faf42c23          	sw	a5,-72(s0)
     da0:	fb842783          	lw	a5,-72(s0)
     da4:	0007c703          	lbu	a4,0(a5)
     da8:	02f00793          	li	a5,47
     dac:	02e7f463          	bgeu	a5,a4,dd4 <ee_vsprintf+0x1c4>
     db0:	fb842783          	lw	a5,-72(s0)
     db4:	0007c703          	lbu	a4,0(a5)
     db8:	03900793          	li	a5,57
     dbc:	00e7ec63          	bltu	a5,a4,dd4 <ee_vsprintf+0x1c4>
     dc0:	fb840793          	addi	a5,s0,-72
     dc4:	00078513          	mv	a0,a5
     dc8:	da0ff0ef          	jal	ra,368 <skip_atoi>
     dcc:	fca42823          	sw	a0,-48(s0)
     dd0:	0340006f          	j	e04 <ee_vsprintf+0x1f4>
     dd4:	fb842783          	lw	a5,-72(s0)
     dd8:	0007c703          	lbu	a4,0(a5)
     ddc:	02a00793          	li	a5,42
     de0:	02f71263          	bne	a4,a5,e04 <ee_vsprintf+0x1f4>
     de4:	fb842783          	lw	a5,-72(s0)
     de8:	00178793          	addi	a5,a5,1
     dec:	faf42c23          	sw	a5,-72(s0)
     df0:	fb442783          	lw	a5,-76(s0)
     df4:	00478713          	addi	a4,a5,4
     df8:	fae42a23          	sw	a4,-76(s0)
     dfc:	0007a783          	lw	a5,0(a5)
     e00:	fcf42823          	sw	a5,-48(s0)
     e04:	fd042783          	lw	a5,-48(s0)
     e08:	0007d463          	bgez	a5,e10 <ee_vsprintf+0x200>
     e0c:	fc042823          	sw	zero,-48(s0)
     e10:	fff00793          	li	a5,-1
     e14:	fcf42623          	sw	a5,-52(s0)
     e18:	fb842783          	lw	a5,-72(s0)
     e1c:	0007c703          	lbu	a4,0(a5)
     e20:	06c00793          	li	a5,108
     e24:	00f70a63          	beq	a4,a5,e38 <ee_vsprintf+0x228>
     e28:	fb842783          	lw	a5,-72(s0)
     e2c:	0007c703          	lbu	a4,0(a5)
     e30:	04c00793          	li	a5,76
     e34:	00f71e63          	bne	a4,a5,e50 <ee_vsprintf+0x240>
     e38:	fb842783          	lw	a5,-72(s0)
     e3c:	0007c783          	lbu	a5,0(a5)
     e40:	fcf42623          	sw	a5,-52(s0)
     e44:	fb842783          	lw	a5,-72(s0)
     e48:	00178793          	addi	a5,a5,1
     e4c:	faf42c23          	sw	a5,-72(s0)
     e50:	00a00793          	li	a5,10
     e54:	fef42223          	sw	a5,-28(s0)
     e58:	fb842783          	lw	a5,-72(s0)
     e5c:	0007c783          	lbu	a5,0(a5)
     e60:	fbf78793          	addi	a5,a5,-65
     e64:	03700713          	li	a4,55
     e68:	28f76863          	bltu	a4,a5,10f8 <ee_vsprintf+0x4e8>
     e6c:	00279713          	slli	a4,a5,0x2
     e70:	400007b7          	lui	a5,0x40000
     e74:	13c78793          	addi	a5,a5,316 # 4000013c <upper_digits+0x128>
     e78:	00f707b3          	add	a5,a4,a5
     e7c:	0007a783          	lw	a5,0(a5)
     e80:	00078067          	jr	a5
     e84:	fd842783          	lw	a5,-40(s0)
     e88:	0107f793          	andi	a5,a5,16
     e8c:	02079863          	bnez	a5,ebc <ee_vsprintf+0x2ac>
     e90:	0180006f          	j	ea8 <ee_vsprintf+0x298>
     e94:	fe042783          	lw	a5,-32(s0)
     e98:	00178713          	addi	a4,a5,1
     e9c:	fee42023          	sw	a4,-32(s0)
     ea0:	02000713          	li	a4,32
     ea4:	00e78023          	sb	a4,0(a5)
     ea8:	fd442783          	lw	a5,-44(s0)
     eac:	fff78793          	addi	a5,a5,-1
     eb0:	fcf42a23          	sw	a5,-44(s0)
     eb4:	fd442783          	lw	a5,-44(s0)
     eb8:	fcf04ee3          	bgtz	a5,e94 <ee_vsprintf+0x284>
     ebc:	fb442783          	lw	a5,-76(s0)
     ec0:	00478713          	addi	a4,a5,4
     ec4:	fae42a23          	sw	a4,-76(s0)
     ec8:	0007a683          	lw	a3,0(a5)
     ecc:	fe042783          	lw	a5,-32(s0)
     ed0:	00178713          	addi	a4,a5,1
     ed4:	fee42023          	sw	a4,-32(s0)
     ed8:	0ff6f713          	andi	a4,a3,255
     edc:	00e78023          	sb	a4,0(a5)
     ee0:	0180006f          	j	ef8 <ee_vsprintf+0x2e8>
     ee4:	fe042783          	lw	a5,-32(s0)
     ee8:	00178713          	addi	a4,a5,1
     eec:	fee42023          	sw	a4,-32(s0)
     ef0:	02000713          	li	a4,32
     ef4:	00e78023          	sb	a4,0(a5)
     ef8:	fd442783          	lw	a5,-44(s0)
     efc:	fff78793          	addi	a5,a5,-1
     f00:	fcf42a23          	sw	a5,-44(s0)
     f04:	fd442783          	lw	a5,-44(s0)
     f08:	fcf04ee3          	bgtz	a5,ee4 <ee_vsprintf+0x2d4>
     f0c:	2c80006f          	j	11d4 <ee_vsprintf+0x5c4>
     f10:	fb442783          	lw	a5,-76(s0)
     f14:	00478713          	addi	a4,a5,4
     f18:	fae42a23          	sw	a4,-76(s0)
     f1c:	0007a783          	lw	a5,0(a5)
     f20:	fcf42e23          	sw	a5,-36(s0)
     f24:	fdc42783          	lw	a5,-36(s0)
     f28:	00079863          	bnez	a5,f38 <ee_vsprintf+0x328>
     f2c:	400007b7          	lui	a5,0x40000
     f30:	0f078793          	addi	a5,a5,240 # 400000f0 <upper_digits+0xdc>
     f34:	fcf42e23          	sw	a5,-36(s0)
     f38:	fd042783          	lw	a5,-48(s0)
     f3c:	00078593          	mv	a1,a5
     f40:	fdc42503          	lw	a0,-36(s0)
     f44:	bc0ff0ef          	jal	ra,304 <strnlen>
     f48:	00050793          	mv	a5,a0
     f4c:	fcf42423          	sw	a5,-56(s0)
     f50:	fd842783          	lw	a5,-40(s0)
     f54:	0107f793          	andi	a5,a5,16
     f58:	02079863          	bnez	a5,f88 <ee_vsprintf+0x378>
     f5c:	0180006f          	j	f74 <ee_vsprintf+0x364>
     f60:	fe042783          	lw	a5,-32(s0)
     f64:	00178713          	addi	a4,a5,1
     f68:	fee42023          	sw	a4,-32(s0)
     f6c:	02000713          	li	a4,32
     f70:	00e78023          	sb	a4,0(a5)
     f74:	fd442783          	lw	a5,-44(s0)
     f78:	fff78713          	addi	a4,a5,-1
     f7c:	fce42a23          	sw	a4,-44(s0)
     f80:	fc842703          	lw	a4,-56(s0)
     f84:	fcf74ee3          	blt	a4,a5,f60 <ee_vsprintf+0x350>
     f88:	fe042423          	sw	zero,-24(s0)
     f8c:	0300006f          	j	fbc <ee_vsprintf+0x3ac>
     f90:	fdc42703          	lw	a4,-36(s0)
     f94:	00170793          	addi	a5,a4,1
     f98:	fcf42e23          	sw	a5,-36(s0)
     f9c:	fe042783          	lw	a5,-32(s0)
     fa0:	00178693          	addi	a3,a5,1
     fa4:	fed42023          	sw	a3,-32(s0)
     fa8:	00074703          	lbu	a4,0(a4)
     fac:	00e78023          	sb	a4,0(a5)
     fb0:	fe842783          	lw	a5,-24(s0)
     fb4:	00178793          	addi	a5,a5,1
     fb8:	fef42423          	sw	a5,-24(s0)
     fbc:	fe842703          	lw	a4,-24(s0)
     fc0:	fc842783          	lw	a5,-56(s0)
     fc4:	fcf746e3          	blt	a4,a5,f90 <ee_vsprintf+0x380>
     fc8:	0180006f          	j	fe0 <ee_vsprintf+0x3d0>
     fcc:	fe042783          	lw	a5,-32(s0)
     fd0:	00178713          	addi	a4,a5,1
     fd4:	fee42023          	sw	a4,-32(s0)
     fd8:	02000713          	li	a4,32
     fdc:	00e78023          	sb	a4,0(a5)
     fe0:	fd442783          	lw	a5,-44(s0)
     fe4:	fff78713          	addi	a4,a5,-1
     fe8:	fce42a23          	sw	a4,-44(s0)
     fec:	fc842703          	lw	a4,-56(s0)
     ff0:	fcf74ee3          	blt	a4,a5,fcc <ee_vsprintf+0x3bc>
     ff4:	1e00006f          	j	11d4 <ee_vsprintf+0x5c4>
     ff8:	fd442703          	lw	a4,-44(s0)
     ffc:	fff00793          	li	a5,-1
    1000:	00f71c63          	bne	a4,a5,1018 <ee_vsprintf+0x408>
    1004:	00800793          	li	a5,8
    1008:	fcf42a23          	sw	a5,-44(s0)
    100c:	fd842783          	lw	a5,-40(s0)
    1010:	0017e793          	ori	a5,a5,1
    1014:	fcf42c23          	sw	a5,-40(s0)
    1018:	fb442783          	lw	a5,-76(s0)
    101c:	00478713          	addi	a4,a5,4
    1020:	fae42a23          	sw	a4,-76(s0)
    1024:	0007a783          	lw	a5,0(a5)
    1028:	00078593          	mv	a1,a5
    102c:	fd842783          	lw	a5,-40(s0)
    1030:	fd042703          	lw	a4,-48(s0)
    1034:	fd442683          	lw	a3,-44(s0)
    1038:	01000613          	li	a2,16
    103c:	fe042503          	lw	a0,-32(s0)
    1040:	bb8ff0ef          	jal	ra,3f8 <number>
    1044:	fea42023          	sw	a0,-32(s0)
    1048:	18c0006f          	j	11d4 <ee_vsprintf+0x5c4>
    104c:	fd842783          	lw	a5,-40(s0)
    1050:	0407e793          	ori	a5,a5,64
    1054:	fcf42c23          	sw	a5,-40(s0)
    1058:	fcc42703          	lw	a4,-52(s0)
    105c:	06c00793          	li	a5,108
    1060:	02f71a63          	bne	a4,a5,1094 <ee_vsprintf+0x484>
    1064:	fb442783          	lw	a5,-76(s0)
    1068:	00478713          	addi	a4,a5,4
    106c:	fae42a23          	sw	a4,-76(s0)
    1070:	0007a783          	lw	a5,0(a5)
    1074:	fd842703          	lw	a4,-40(s0)
    1078:	fd042683          	lw	a3,-48(s0)
    107c:	fd442603          	lw	a2,-44(s0)
    1080:	00078593          	mv	a1,a5
    1084:	fe042503          	lw	a0,-32(s0)
    1088:	f14ff0ef          	jal	ra,79c <eaddr>
    108c:	fea42023          	sw	a0,-32(s0)
    1090:	1440006f          	j	11d4 <ee_vsprintf+0x5c4>
    1094:	fb442783          	lw	a5,-76(s0)
    1098:	00478713          	addi	a4,a5,4
    109c:	fae42a23          	sw	a4,-76(s0)
    10a0:	0007a783          	lw	a5,0(a5)
    10a4:	fd842703          	lw	a4,-40(s0)
    10a8:	fd042683          	lw	a3,-48(s0)
    10ac:	fd442603          	lw	a2,-44(s0)
    10b0:	00078593          	mv	a1,a5
    10b4:	fe042503          	lw	a0,-32(s0)
    10b8:	8a1ff0ef          	jal	ra,958 <iaddr>
    10bc:	fea42023          	sw	a0,-32(s0)
    10c0:	1140006f          	j	11d4 <ee_vsprintf+0x5c4>
    10c4:	00800793          	li	a5,8
    10c8:	fef42223          	sw	a5,-28(s0)
    10cc:	08c0006f          	j	1158 <ee_vsprintf+0x548>
    10d0:	fd842783          	lw	a5,-40(s0)
    10d4:	0407e793          	ori	a5,a5,64
    10d8:	fcf42c23          	sw	a5,-40(s0)
    10dc:	01000793          	li	a5,16
    10e0:	fef42223          	sw	a5,-28(s0)
    10e4:	0740006f          	j	1158 <ee_vsprintf+0x548>
    10e8:	fd842783          	lw	a5,-40(s0)
    10ec:	0027e793          	ori	a5,a5,2
    10f0:	fcf42c23          	sw	a5,-40(s0)
    10f4:	0600006f          	j	1154 <ee_vsprintf+0x544>
    10f8:	fb842783          	lw	a5,-72(s0)
    10fc:	0007c703          	lbu	a4,0(a5)
    1100:	02500793          	li	a5,37
    1104:	00f70c63          	beq	a4,a5,111c <ee_vsprintf+0x50c>
    1108:	fe042783          	lw	a5,-32(s0)
    110c:	00178713          	addi	a4,a5,1
    1110:	fee42023          	sw	a4,-32(s0)
    1114:	02500713          	li	a4,37
    1118:	00e78023          	sb	a4,0(a5)
    111c:	fb842783          	lw	a5,-72(s0)
    1120:	0007c783          	lbu	a5,0(a5)
    1124:	02078063          	beqz	a5,1144 <ee_vsprintf+0x534>
    1128:	fb842703          	lw	a4,-72(s0)
    112c:	fe042783          	lw	a5,-32(s0)
    1130:	00178693          	addi	a3,a5,1
    1134:	fed42023          	sw	a3,-32(s0)
    1138:	00074703          	lbu	a4,0(a4)
    113c:	00e78023          	sb	a4,0(a5)
    1140:	0940006f          	j	11d4 <ee_vsprintf+0x5c4>
    1144:	fb842783          	lw	a5,-72(s0)
    1148:	fff78793          	addi	a5,a5,-1
    114c:	faf42c23          	sw	a5,-72(s0)
    1150:	0840006f          	j	11d4 <ee_vsprintf+0x5c4>
    1154:	00000013          	nop
    1158:	fcc42703          	lw	a4,-52(s0)
    115c:	06c00793          	li	a5,108
    1160:	00f71e63          	bne	a4,a5,117c <ee_vsprintf+0x56c>
    1164:	fb442783          	lw	a5,-76(s0)
    1168:	00478713          	addi	a4,a5,4
    116c:	fae42a23          	sw	a4,-76(s0)
    1170:	0007a783          	lw	a5,0(a5)
    1174:	fef42623          	sw	a5,-20(s0)
    1178:	03c0006f          	j	11b4 <ee_vsprintf+0x5a4>
    117c:	fd842783          	lw	a5,-40(s0)
    1180:	0027f793          	andi	a5,a5,2
    1184:	00078e63          	beqz	a5,11a0 <ee_vsprintf+0x590>
    1188:	fb442783          	lw	a5,-76(s0)
    118c:	00478713          	addi	a4,a5,4
    1190:	fae42a23          	sw	a4,-76(s0)
    1194:	0007a783          	lw	a5,0(a5)
    1198:	fef42623          	sw	a5,-20(s0)
    119c:	0180006f          	j	11b4 <ee_vsprintf+0x5a4>
    11a0:	fb442783          	lw	a5,-76(s0)
    11a4:	00478713          	addi	a4,a5,4
    11a8:	fae42a23          	sw	a4,-76(s0)
    11ac:	0007a783          	lw	a5,0(a5)
    11b0:	fef42623          	sw	a5,-20(s0)
    11b4:	fec42583          	lw	a1,-20(s0)
    11b8:	fd842783          	lw	a5,-40(s0)
    11bc:	fd042703          	lw	a4,-48(s0)
    11c0:	fd442683          	lw	a3,-44(s0)
    11c4:	fe442603          	lw	a2,-28(s0)
    11c8:	fe042503          	lw	a0,-32(s0)
    11cc:	a2cff0ef          	jal	ra,3f8 <number>
    11d0:	fea42023          	sw	a0,-32(s0)
    11d4:	fb842783          	lw	a5,-72(s0)
    11d8:	00178793          	addi	a5,a5,1
    11dc:	faf42c23          	sw	a5,-72(s0)
    11e0:	fb842783          	lw	a5,-72(s0)
    11e4:	0007c783          	lbu	a5,0(a5)
    11e8:	a40798e3          	bnez	a5,c38 <ee_vsprintf+0x28>
    11ec:	fe042783          	lw	a5,-32(s0)
    11f0:	00078023          	sb	zero,0(a5)
    11f4:	fe042703          	lw	a4,-32(s0)
    11f8:	fbc42783          	lw	a5,-68(s0)
    11fc:	40f707b3          	sub	a5,a4,a5
    1200:	00078513          	mv	a0,a5
    1204:	04c12083          	lw	ra,76(sp)
    1208:	04812403          	lw	s0,72(sp)
    120c:	05010113          	addi	sp,sp,80
    1210:	00008067          	ret

00001214 <uart_send_char>:
    1214:	fd010113          	addi	sp,sp,-48
    1218:	02812623          	sw	s0,44(sp)
    121c:	03010413          	addi	s0,sp,48
    1220:	00050793          	mv	a5,a0
    1224:	fcf40fa3          	sb	a5,-33(s0)
    1228:	800007b7          	lui	a5,0x80000
    122c:	10078793          	addi	a5,a5,256 # 80000100 <_end+0x3ffffd9c>
    1230:	fef42623          	sw	a5,-20(s0)
    1234:	800007b7          	lui	a5,0x80000
    1238:	10478793          	addi	a5,a5,260 # 80000104 <_end+0x3ffffda0>
    123c:	fef42423          	sw	a5,-24(s0)
    1240:	00000013          	nop
    1244:	fec42783          	lw	a5,-20(s0)
    1248:	0007a703          	lw	a4,0(a5)
    124c:	00100793          	li	a5,1
    1250:	fef71ae3          	bne	a4,a5,1244 <uart_send_char+0x30>
    1254:	fdf44703          	lbu	a4,-33(s0)
    1258:	fe842783          	lw	a5,-24(s0)
    125c:	00e7a023          	sw	a4,0(a5)
    1260:	00000013          	nop
    1264:	02c12403          	lw	s0,44(sp)
    1268:	03010113          	addi	sp,sp,48
    126c:	00008067          	ret

00001270 <ee_printf>:
    1270:	eb010113          	addi	sp,sp,-336
    1274:	12112623          	sw	ra,300(sp)
    1278:	12812423          	sw	s0,296(sp)
    127c:	13010413          	addi	s0,sp,304
    1280:	eca42e23          	sw	a0,-292(s0)
    1284:	00b42223          	sw	a1,4(s0)
    1288:	00c42423          	sw	a2,8(s0)
    128c:	00d42623          	sw	a3,12(s0)
    1290:	00e42823          	sw	a4,16(s0)
    1294:	00f42a23          	sw	a5,20(s0)
    1298:	01042c23          	sw	a6,24(s0)
    129c:	01142e23          	sw	a7,28(s0)
    12a0:	fe042423          	sw	zero,-24(s0)
    12a4:	02040793          	addi	a5,s0,32
    12a8:	ecf42c23          	sw	a5,-296(s0)
    12ac:	ed842783          	lw	a5,-296(s0)
    12b0:	fe478793          	addi	a5,a5,-28
    12b4:	eef42223          	sw	a5,-284(s0)
    12b8:	ee442703          	lw	a4,-284(s0)
    12bc:	ee840793          	addi	a5,s0,-280
    12c0:	00070613          	mv	a2,a4
    12c4:	edc42583          	lw	a1,-292(s0)
    12c8:	00078513          	mv	a0,a5
    12cc:	945ff0ef          	jal	ra,c10 <ee_vsprintf>
    12d0:	ee840793          	addi	a5,s0,-280
    12d4:	fef42623          	sw	a5,-20(s0)
    12d8:	02c0006f          	j	1304 <ee_printf+0x94>
    12dc:	fec42783          	lw	a5,-20(s0)
    12e0:	0007c783          	lbu	a5,0(a5)
    12e4:	00078513          	mv	a0,a5
    12e8:	f2dff0ef          	jal	ra,1214 <uart_send_char>
    12ec:	fe842783          	lw	a5,-24(s0)
    12f0:	00178793          	addi	a5,a5,1
    12f4:	fef42423          	sw	a5,-24(s0)
    12f8:	fec42783          	lw	a5,-20(s0)
    12fc:	00178793          	addi	a5,a5,1
    1300:	fef42623          	sw	a5,-20(s0)
    1304:	fec42783          	lw	a5,-20(s0)
    1308:	0007c783          	lbu	a5,0(a5)
    130c:	fc0798e3          	bnez	a5,12dc <ee_printf+0x6c>
    1310:	fe842783          	lw	a5,-24(s0)
    1314:	00078513          	mv	a0,a5
    1318:	12c12083          	lw	ra,300(sp)
    131c:	12812403          	lw	s0,296(sp)
    1320:	15010113          	addi	sp,sp,336
    1324:	00008067          	ret

00001328 <match_cmd>:
    1328:	fd010113          	addi	sp,sp,-48
    132c:	02112623          	sw	ra,44(sp)
    1330:	02812423          	sw	s0,40(sp)
    1334:	03010413          	addi	s0,sp,48
    1338:	fca42e23          	sw	a0,-36(s0)
    133c:	fdc42503          	lw	a0,-36(s0)
    1340:	4b4000ef          	jal	ra,17f4 <strlen>
    1344:	00050713          	mv	a4,a0
    1348:	01400793          	li	a5,20
    134c:	08e7e663          	bltu	a5,a4,13d8 <match_cmd+0xb0>
    1350:	fe042623          	sw	zero,-20(s0)
    1354:	06c0006f          	j	13c0 <match_cmd+0x98>
    1358:	fec42703          	lw	a4,-20(s0)
    135c:	00070793          	mv	a5,a4
    1360:	00379793          	slli	a5,a5,0x3
    1364:	40e787b3          	sub	a5,a5,a4
    1368:	00279793          	slli	a5,a5,0x2
    136c:	40000737          	lui	a4,0x40000
    1370:	23870713          	addi	a4,a4,568 # 40000238 <commands>
    1374:	00e787b3          	add	a5,a5,a4
    1378:	fdc42583          	lw	a1,-36(s0)
    137c:	00078513          	mv	a0,a5
    1380:	248000ef          	jal	ra,15c8 <strcmp>
    1384:	00050793          	mv	a5,a0
    1388:	02079663          	bnez	a5,13b4 <match_cmd+0x8c>
    138c:	400007b7          	lui	a5,0x40000
    1390:	23878693          	addi	a3,a5,568 # 40000238 <commands>
    1394:	fec42703          	lw	a4,-20(s0)
    1398:	00070793          	mv	a5,a4
    139c:	00379793          	slli	a5,a5,0x3
    13a0:	40e787b3          	sub	a5,a5,a4
    13a4:	00279793          	slli	a5,a5,0x2
    13a8:	00f687b3          	add	a5,a3,a5
    13ac:	0187a783          	lw	a5,24(a5)
    13b0:	000780e7          	jalr	a5
    13b4:	fec42783          	lw	a5,-20(s0)
    13b8:	00178793          	addi	a5,a5,1
    13bc:	fef42623          	sw	a5,-20(s0)
    13c0:	400007b7          	lui	a5,0x40000
    13c4:	23878793          	addi	a5,a5,568 # 40000238 <commands>
    13c8:	1187a783          	lw	a5,280(a5)
    13cc:	fec42703          	lw	a4,-20(s0)
    13d0:	f8f744e3          	blt	a4,a5,1358 <match_cmd+0x30>
    13d4:	0080006f          	j	13dc <match_cmd+0xb4>
    13d8:	00000013          	nop
    13dc:	02c12083          	lw	ra,44(sp)
    13e0:	02812403          	lw	s0,40(sp)
    13e4:	03010113          	addi	sp,sp,48
    13e8:	00008067          	ret

000013ec <register_cmds>:
    13ec:	fd010113          	addi	sp,sp,-48
    13f0:	02112623          	sw	ra,44(sp)
    13f4:	02812423          	sw	s0,40(sp)
    13f8:	03010413          	addi	s0,sp,48
    13fc:	fca42e23          	sw	a0,-36(s0)
    1400:	fcb42c23          	sw	a1,-40(s0)
    1404:	fd842703          	lw	a4,-40(s0)
    1408:	00a00793          	li	a5,10
    140c:	0ee7ce63          	blt	a5,a4,1508 <register_cmds+0x11c>
    1410:	fe042623          	sw	zero,-20(s0)
    1414:	0e40006f          	j	14f8 <register_cmds+0x10c>
    1418:	400007b7          	lui	a5,0x40000
    141c:	23878793          	addi	a5,a5,568 # 40000238 <commands>
    1420:	1187a703          	lw	a4,280(a5)
    1424:	00900793          	li	a5,9
    1428:	0ce7c263          	blt	a5,a4,14ec <register_cmds+0x100>
    142c:	400007b7          	lui	a5,0x40000
    1430:	23878793          	addi	a5,a5,568 # 40000238 <commands>
    1434:	1187a703          	lw	a4,280(a5)
    1438:	00070793          	mv	a5,a4
    143c:	00379793          	slli	a5,a5,0x3
    1440:	40e787b3          	sub	a5,a5,a4
    1444:	00279793          	slli	a5,a5,0x2
    1448:	40000737          	lui	a4,0x40000
    144c:	23870713          	addi	a4,a4,568 # 40000238 <commands>
    1450:	00e786b3          	add	a3,a5,a4
    1454:	fec42703          	lw	a4,-20(s0)
    1458:	00070793          	mv	a5,a4
    145c:	00379793          	slli	a5,a5,0x3
    1460:	40e787b3          	sub	a5,a5,a4
    1464:	00279793          	slli	a5,a5,0x2
    1468:	00078713          	mv	a4,a5
    146c:	fdc42783          	lw	a5,-36(s0)
    1470:	00e787b3          	add	a5,a5,a4
    1474:	00078593          	mv	a1,a5
    1478:	00068513          	mv	a0,a3
    147c:	2c8000ef          	jal	ra,1744 <strcpy>
    1480:	fec42703          	lw	a4,-20(s0)
    1484:	00070793          	mv	a5,a4
    1488:	00379793          	slli	a5,a5,0x3
    148c:	40e787b3          	sub	a5,a5,a4
    1490:	00279793          	slli	a5,a5,0x2
    1494:	00078713          	mv	a4,a5
    1498:	fdc42783          	lw	a5,-36(s0)
    149c:	00e787b3          	add	a5,a5,a4
    14a0:	40000737          	lui	a4,0x40000
    14a4:	23870713          	addi	a4,a4,568 # 40000238 <commands>
    14a8:	11872703          	lw	a4,280(a4)
    14ac:	0187a683          	lw	a3,24(a5)
    14b0:	400007b7          	lui	a5,0x40000
    14b4:	23878613          	addi	a2,a5,568 # 40000238 <commands>
    14b8:	00070793          	mv	a5,a4
    14bc:	00379793          	slli	a5,a5,0x3
    14c0:	40e787b3          	sub	a5,a5,a4
    14c4:	00279793          	slli	a5,a5,0x2
    14c8:	00f607b3          	add	a5,a2,a5
    14cc:	00d7ac23          	sw	a3,24(a5)
    14d0:	400007b7          	lui	a5,0x40000
    14d4:	23878793          	addi	a5,a5,568 # 40000238 <commands>
    14d8:	1187a783          	lw	a5,280(a5)
    14dc:	00178713          	addi	a4,a5,1
    14e0:	400007b7          	lui	a5,0x40000
    14e4:	23878793          	addi	a5,a5,568 # 40000238 <commands>
    14e8:	10e7ac23          	sw	a4,280(a5)
    14ec:	fec42783          	lw	a5,-20(s0)
    14f0:	00178793          	addi	a5,a5,1
    14f4:	fef42623          	sw	a5,-20(s0)
    14f8:	fec42703          	lw	a4,-20(s0)
    14fc:	fd842783          	lw	a5,-40(s0)
    1500:	f0f74ce3          	blt	a4,a5,1418 <register_cmds+0x2c>
    1504:	0080006f          	j	150c <register_cmds+0x120>
    1508:	00000013          	nop
    150c:	02c12083          	lw	ra,44(sp)
    1510:	02812403          	lw	s0,40(sp)
    1514:	03010113          	addi	sp,sp,48
    1518:	00008067          	ret

0000151c <led_test>:
    151c:	fe010113          	addi	sp,sp,-32
    1520:	00812e23          	sw	s0,28(sp)
    1524:	02010413          	addi	s0,sp,32
    1528:	800007b7          	lui	a5,0x80000
    152c:	13078793          	addi	a5,a5,304 # 80000130 <_end+0x3ffffdcc>
    1530:	fef42623          	sw	a5,-20(s0)
    1534:	fec42783          	lw	a5,-20(s0)
    1538:	aaaab737          	lui	a4,0xaaaab
    153c:	aaa70713          	addi	a4,a4,-1366 # aaaaaaaa <_end+0x6aaaa746>
    1540:	00e7a023          	sw	a4,0(a5)
    1544:	00000013          	nop
    1548:	01c12403          	lw	s0,28(sp)
    154c:	02010113          	addi	sp,sp,32
    1550:	00008067          	ret

00001554 <led_init>:
    1554:	fd010113          	addi	sp,sp,-48
    1558:	02112623          	sw	ra,44(sp)
    155c:	02812423          	sw	s0,40(sp)
    1560:	03010413          	addi	s0,sp,48
    1564:	400007b7          	lui	a5,0x40000
    1568:	21c78793          	addi	a5,a5,540 # 4000021c <upper_digits+0x208>
    156c:	0007a803          	lw	a6,0(a5)
    1570:	0047a503          	lw	a0,4(a5)
    1574:	0087a583          	lw	a1,8(a5)
    1578:	00c7a603          	lw	a2,12(a5)
    157c:	0107a683          	lw	a3,16(a5)
    1580:	0147a703          	lw	a4,20(a5)
    1584:	0187a783          	lw	a5,24(a5)
    1588:	fd042a23          	sw	a6,-44(s0)
    158c:	fca42c23          	sw	a0,-40(s0)
    1590:	fcb42e23          	sw	a1,-36(s0)
    1594:	fec42023          	sw	a2,-32(s0)
    1598:	fed42223          	sw	a3,-28(s0)
    159c:	fee42423          	sw	a4,-24(s0)
    15a0:	fef42623          	sw	a5,-20(s0)
    15a4:	fd440793          	addi	a5,s0,-44
    15a8:	00100593          	li	a1,1
    15ac:	00078513          	mv	a0,a5
    15b0:	e3dff0ef          	jal	ra,13ec <register_cmds>
    15b4:	00000013          	nop
    15b8:	02c12083          	lw	ra,44(sp)
    15bc:	02812403          	lw	s0,40(sp)
    15c0:	03010113          	addi	sp,sp,48
    15c4:	00008067          	ret

000015c8 <strcmp>:
    15c8:	00b56733          	or	a4,a0,a1
    15cc:	fff00393          	li	t2,-1
    15d0:	00377713          	andi	a4,a4,3
    15d4:	10071063          	bnez	a4,16d4 <strcmp+0x10c>
    15d8:	7f7f87b7          	lui	a5,0x7f7f8
    15dc:	f7f78793          	addi	a5,a5,-129 # 7f7f7f7f <_end+0x3f7f7c1b>
    15e0:	00052603          	lw	a2,0(a0)
    15e4:	0005a683          	lw	a3,0(a1)
    15e8:	00f672b3          	and	t0,a2,a5
    15ec:	00f66333          	or	t1,a2,a5
    15f0:	00f282b3          	add	t0,t0,a5
    15f4:	0062e2b3          	or	t0,t0,t1
    15f8:	10729263          	bne	t0,t2,16fc <strcmp+0x134>
    15fc:	08d61663          	bne	a2,a3,1688 <strcmp+0xc0>
    1600:	00452603          	lw	a2,4(a0)
    1604:	0045a683          	lw	a3,4(a1)
    1608:	00f672b3          	and	t0,a2,a5
    160c:	00f66333          	or	t1,a2,a5
    1610:	00f282b3          	add	t0,t0,a5
    1614:	0062e2b3          	or	t0,t0,t1
    1618:	0c729e63          	bne	t0,t2,16f4 <strcmp+0x12c>
    161c:	06d61663          	bne	a2,a3,1688 <strcmp+0xc0>
    1620:	00852603          	lw	a2,8(a0)
    1624:	0085a683          	lw	a3,8(a1)
    1628:	00f672b3          	and	t0,a2,a5
    162c:	00f66333          	or	t1,a2,a5
    1630:	00f282b3          	add	t0,t0,a5
    1634:	0062e2b3          	or	t0,t0,t1
    1638:	0c729863          	bne	t0,t2,1708 <strcmp+0x140>
    163c:	04d61663          	bne	a2,a3,1688 <strcmp+0xc0>
    1640:	00c52603          	lw	a2,12(a0)
    1644:	00c5a683          	lw	a3,12(a1)
    1648:	00f672b3          	and	t0,a2,a5
    164c:	00f66333          	or	t1,a2,a5
    1650:	00f282b3          	add	t0,t0,a5
    1654:	0062e2b3          	or	t0,t0,t1
    1658:	0c729263          	bne	t0,t2,171c <strcmp+0x154>
    165c:	02d61663          	bne	a2,a3,1688 <strcmp+0xc0>
    1660:	01052603          	lw	a2,16(a0)
    1664:	0105a683          	lw	a3,16(a1)
    1668:	00f672b3          	and	t0,a2,a5
    166c:	00f66333          	or	t1,a2,a5
    1670:	00f282b3          	add	t0,t0,a5
    1674:	0062e2b3          	or	t0,t0,t1
    1678:	0a729c63          	bne	t0,t2,1730 <strcmp+0x168>
    167c:	01450513          	addi	a0,a0,20
    1680:	01458593          	addi	a1,a1,20
    1684:	f4d60ee3          	beq	a2,a3,15e0 <strcmp+0x18>
    1688:	01061713          	slli	a4,a2,0x10
    168c:	01069793          	slli	a5,a3,0x10
    1690:	00f71e63          	bne	a4,a5,16ac <strcmp+0xe4>
    1694:	01065713          	srli	a4,a2,0x10
    1698:	0106d793          	srli	a5,a3,0x10
    169c:	40f70533          	sub	a0,a4,a5
    16a0:	0ff57593          	andi	a1,a0,255
    16a4:	02059063          	bnez	a1,16c4 <strcmp+0xfc>
    16a8:	00008067          	ret
    16ac:	01075713          	srli	a4,a4,0x10
    16b0:	0107d793          	srli	a5,a5,0x10
    16b4:	40f70533          	sub	a0,a4,a5
    16b8:	0ff57593          	andi	a1,a0,255
    16bc:	00059463          	bnez	a1,16c4 <strcmp+0xfc>
    16c0:	00008067          	ret
    16c4:	0ff77713          	andi	a4,a4,255
    16c8:	0ff7f793          	andi	a5,a5,255
    16cc:	40f70533          	sub	a0,a4,a5
    16d0:	00008067          	ret
    16d4:	00054603          	lbu	a2,0(a0)
    16d8:	0005c683          	lbu	a3,0(a1)
    16dc:	00150513          	addi	a0,a0,1
    16e0:	00158593          	addi	a1,a1,1
    16e4:	00d61463          	bne	a2,a3,16ec <strcmp+0x124>
    16e8:	fe0616e3          	bnez	a2,16d4 <strcmp+0x10c>
    16ec:	40d60533          	sub	a0,a2,a3
    16f0:	00008067          	ret
    16f4:	00450513          	addi	a0,a0,4
    16f8:	00458593          	addi	a1,a1,4
    16fc:	fcd61ce3          	bne	a2,a3,16d4 <strcmp+0x10c>
    1700:	00000513          	li	a0,0
    1704:	00008067          	ret
    1708:	00850513          	addi	a0,a0,8
    170c:	00858593          	addi	a1,a1,8
    1710:	fcd612e3          	bne	a2,a3,16d4 <strcmp+0x10c>
    1714:	00000513          	li	a0,0
    1718:	00008067          	ret
    171c:	00c50513          	addi	a0,a0,12
    1720:	00c58593          	addi	a1,a1,12
    1724:	fad618e3          	bne	a2,a3,16d4 <strcmp+0x10c>
    1728:	00000513          	li	a0,0
    172c:	00008067          	ret
    1730:	01050513          	addi	a0,a0,16
    1734:	01058593          	addi	a1,a1,16
    1738:	f8d61ee3          	bne	a2,a3,16d4 <strcmp+0x10c>
    173c:	00000513          	li	a0,0
    1740:	00008067          	ret

00001744 <strcpy>:
    1744:	00b567b3          	or	a5,a0,a1
    1748:	0037f793          	andi	a5,a5,3
    174c:	08079263          	bnez	a5,17d0 <strcpy+0x8c>
    1750:	0005a703          	lw	a4,0(a1)
    1754:	7f7f86b7          	lui	a3,0x7f7f8
    1758:	f7f68693          	addi	a3,a3,-129 # 7f7f7f7f <_end+0x3f7f7c1b>
    175c:	00d777b3          	and	a5,a4,a3
    1760:	00d787b3          	add	a5,a5,a3
    1764:	00e7e7b3          	or	a5,a5,a4
    1768:	00d7e7b3          	or	a5,a5,a3
    176c:	fff00613          	li	a2,-1
    1770:	06c79e63          	bne	a5,a2,17ec <strcpy+0xa8>
    1774:	00050613          	mv	a2,a0
    1778:	fff00813          	li	a6,-1
    177c:	00e62023          	sw	a4,0(a2)
    1780:	0045a703          	lw	a4,4(a1)
    1784:	00458593          	addi	a1,a1,4
    1788:	00460613          	addi	a2,a2,4
    178c:	00d777b3          	and	a5,a4,a3
    1790:	00d787b3          	add	a5,a5,a3
    1794:	00e7e7b3          	or	a5,a5,a4
    1798:	00d7e7b3          	or	a5,a5,a3
    179c:	ff0780e3          	beq	a5,a6,177c <strcpy+0x38>
    17a0:	0005c783          	lbu	a5,0(a1)
    17a4:	0015c703          	lbu	a4,1(a1)
    17a8:	0025c683          	lbu	a3,2(a1)
    17ac:	00f60023          	sb	a5,0(a2)
    17b0:	00078a63          	beqz	a5,17c4 <strcpy+0x80>
    17b4:	00e600a3          	sb	a4,1(a2)
    17b8:	00070663          	beqz	a4,17c4 <strcpy+0x80>
    17bc:	00d60123          	sb	a3,2(a2)
    17c0:	00069463          	bnez	a3,17c8 <strcpy+0x84>
    17c4:	00008067          	ret
    17c8:	000601a3          	sb	zero,3(a2)
    17cc:	00008067          	ret
    17d0:	00050793          	mv	a5,a0
    17d4:	0005c703          	lbu	a4,0(a1)
    17d8:	00178793          	addi	a5,a5,1
    17dc:	00158593          	addi	a1,a1,1
    17e0:	fee78fa3          	sb	a4,-1(a5)
    17e4:	fe0718e3          	bnez	a4,17d4 <strcpy+0x90>
    17e8:	00008067          	ret
    17ec:	00050613          	mv	a2,a0
    17f0:	fb1ff06f          	j	17a0 <strcpy+0x5c>

000017f4 <strlen>:
    17f4:	00357793          	andi	a5,a0,3
    17f8:	00050713          	mv	a4,a0
    17fc:	04079c63          	bnez	a5,1854 <strlen+0x60>
    1800:	7f7f86b7          	lui	a3,0x7f7f8
    1804:	f7f68693          	addi	a3,a3,-129 # 7f7f7f7f <_end+0x3f7f7c1b>
    1808:	fff00593          	li	a1,-1
    180c:	00072603          	lw	a2,0(a4)
    1810:	00470713          	addi	a4,a4,4
    1814:	00d677b3          	and	a5,a2,a3
    1818:	00d787b3          	add	a5,a5,a3
    181c:	00c7e7b3          	or	a5,a5,a2
    1820:	00d7e7b3          	or	a5,a5,a3
    1824:	feb784e3          	beq	a5,a1,180c <strlen+0x18>
    1828:	ffc74683          	lbu	a3,-4(a4)
    182c:	ffd74603          	lbu	a2,-3(a4)
    1830:	ffe74783          	lbu	a5,-2(a4)
    1834:	40a70733          	sub	a4,a4,a0
    1838:	04068063          	beqz	a3,1878 <strlen+0x84>
    183c:	02060a63          	beqz	a2,1870 <strlen+0x7c>
    1840:	00f03533          	snez	a0,a5
    1844:	00e50533          	add	a0,a0,a4
    1848:	ffe50513          	addi	a0,a0,-2
    184c:	00008067          	ret
    1850:	fa0688e3          	beqz	a3,1800 <strlen+0xc>
    1854:	00074783          	lbu	a5,0(a4)
    1858:	00170713          	addi	a4,a4,1
    185c:	00377693          	andi	a3,a4,3
    1860:	fe0798e3          	bnez	a5,1850 <strlen+0x5c>
    1864:	40a70733          	sub	a4,a4,a0
    1868:	fff70513          	addi	a0,a4,-1
    186c:	00008067          	ret
    1870:	ffd70513          	addi	a0,a4,-3
    1874:	00008067          	ret
    1878:	ffc70513          	addi	a0,a4,-4
    187c:	00008067          	ret

00001880 <__mulsi3>:
    1880:	00050613          	mv	a2,a0
    1884:	00000513          	li	a0,0
    1888:	0015f693          	andi	a3,a1,1
    188c:	00068463          	beqz	a3,1894 <__mulsi3+0x14>
    1890:	00c50533          	add	a0,a0,a2
    1894:	0015d593          	srli	a1,a1,0x1
    1898:	00161613          	slli	a2,a2,0x1
    189c:	fe0596e3          	bnez	a1,1888 <__mulsi3+0x8>
    18a0:	00008067          	ret

000018a4 <__divsi3>:
    18a4:	06054063          	bltz	a0,1904 <__umodsi3+0x10>
    18a8:	0605c663          	bltz	a1,1914 <__umodsi3+0x20>

000018ac <__udivsi3>:
    18ac:	00058613          	mv	a2,a1
    18b0:	00050593          	mv	a1,a0
    18b4:	fff00513          	li	a0,-1
    18b8:	02060c63          	beqz	a2,18f0 <__udivsi3+0x44>
    18bc:	00100693          	li	a3,1
    18c0:	00b67a63          	bgeu	a2,a1,18d4 <__udivsi3+0x28>
    18c4:	00c05863          	blez	a2,18d4 <__udivsi3+0x28>
    18c8:	00161613          	slli	a2,a2,0x1
    18cc:	00169693          	slli	a3,a3,0x1
    18d0:	feb66ae3          	bltu	a2,a1,18c4 <__udivsi3+0x18>
    18d4:	00000513          	li	a0,0
    18d8:	00c5e663          	bltu	a1,a2,18e4 <__udivsi3+0x38>
    18dc:	40c585b3          	sub	a1,a1,a2
    18e0:	00d56533          	or	a0,a0,a3
    18e4:	0016d693          	srli	a3,a3,0x1
    18e8:	00165613          	srli	a2,a2,0x1
    18ec:	fe0696e3          	bnez	a3,18d8 <__udivsi3+0x2c>
    18f0:	00008067          	ret

000018f4 <__umodsi3>:
    18f4:	00008293          	mv	t0,ra
    18f8:	fb5ff0ef          	jal	ra,18ac <__udivsi3>
    18fc:	00058513          	mv	a0,a1
    1900:	00028067          	jr	t0
    1904:	40a00533          	neg	a0,a0
    1908:	0005d863          	bgez	a1,1918 <__umodsi3+0x24>
    190c:	40b005b3          	neg	a1,a1
    1910:	f9dff06f          	j	18ac <__udivsi3>
    1914:	40b005b3          	neg	a1,a1
    1918:	00008293          	mv	t0,ra
    191c:	f91ff0ef          	jal	ra,18ac <__udivsi3>
    1920:	40a00533          	neg	a0,a0
    1924:	00028067          	jr	t0

00001928 <__modsi3>:
    1928:	00008293          	mv	t0,ra
    192c:	0005ca63          	bltz	a1,1940 <__modsi3+0x18>
    1930:	00054c63          	bltz	a0,1948 <__modsi3+0x20>
    1934:	f79ff0ef          	jal	ra,18ac <__udivsi3>
    1938:	00058513          	mv	a0,a1
    193c:	00028067          	jr	t0
    1940:	40b005b3          	neg	a1,a1
    1944:	fe0558e3          	bgez	a0,1934 <__modsi3+0xc>
    1948:	40a00533          	neg	a0,a0
    194c:	f61ff0ef          	jal	ra,18ac <__udivsi3>
    1950:	40b00533          	neg	a0,a1
    1954:	00028067          	jr	t0
