
test.elf:     file format elf32-littleriscv


Disassembly of section .text:

00000000 <_start>:
       0:	40008137          	lui	sp,0x40008
       4:	00000297          	auipc	t0,0x0
       8:	01c28293          	addi	t0,t0,28 # 20 <_trap_handler>
       c:	30529073          	csrw	mtvec,t0
      10:	300022f3          	csrr	t0,mstatus
      14:	0082e293          	ori	t0,t0,8
      18:	30029073          	csrw	mstatus,t0
      1c:	1f4000ef          	jal	ra,210 <main>

00000020 <_trap_handler>:
      20:	f8810113          	addi	sp,sp,-120 # 40007f88 <_end+0x7bc8>
      24:	00112023          	sw	ra,0(sp)
      28:	00312223          	sw	gp,4(sp)
      2c:	00412423          	sw	tp,8(sp)
      30:	00512623          	sw	t0,12(sp)
      34:	00612823          	sw	t1,16(sp)
      38:	00712a23          	sw	t2,20(sp)
      3c:	00812c23          	sw	s0,24(sp)
      40:	00912e23          	sw	s1,28(sp)
      44:	02a12023          	sw	a0,32(sp)
      48:	02b12223          	sw	a1,36(sp)
      4c:	02c12423          	sw	a2,40(sp)
      50:	02d12623          	sw	a3,44(sp)
      54:	02e12823          	sw	a4,48(sp)
      58:	02f12a23          	sw	a5,52(sp)
      5c:	03012c23          	sw	a6,56(sp)
      60:	03112e23          	sw	a7,60(sp)
      64:	05212023          	sw	s2,64(sp)
      68:	05312223          	sw	s3,68(sp)
      6c:	05412423          	sw	s4,72(sp)
      70:	05512623          	sw	s5,76(sp)
      74:	05612823          	sw	s6,80(sp)
      78:	05712a23          	sw	s7,84(sp)
      7c:	05812c23          	sw	s8,88(sp)
      80:	05912e23          	sw	s9,92(sp)
      84:	06912023          	sw	s1,96(sp)
      88:	06912223          	sw	s1,100(sp)
      8c:	07c12423          	sw	t3,104(sp)
      90:	07d12623          	sw	t4,108(sp)
      94:	07e12823          	sw	t5,112(sp)
      98:	07f12a23          	sw	t6,116(sp)
      9c:	1c4000ef          	jal	ra,260 <isr>
      a0:	07412f83          	lw	t6,116(sp)
      a4:	07012f03          	lw	t5,112(sp)
      a8:	06c12e83          	lw	t4,108(sp)
      ac:	06812e03          	lw	t3,104(sp)
      b0:	06412483          	lw	s1,100(sp)
      b4:	06012483          	lw	s1,96(sp)
      b8:	05c12c83          	lw	s9,92(sp)
      bc:	05812c03          	lw	s8,88(sp)
      c0:	05412b83          	lw	s7,84(sp)
      c4:	05012b03          	lw	s6,80(sp)
      c8:	04c12a83          	lw	s5,76(sp)
      cc:	04812a03          	lw	s4,72(sp)
      d0:	04412983          	lw	s3,68(sp)
      d4:	04012903          	lw	s2,64(sp)
      d8:	03c12883          	lw	a7,60(sp)
      dc:	03812803          	lw	a6,56(sp)
      e0:	03412783          	lw	a5,52(sp)
      e4:	03012703          	lw	a4,48(sp)
      e8:	02c12683          	lw	a3,44(sp)
      ec:	02812603          	lw	a2,40(sp)
      f0:	02412583          	lw	a1,36(sp)
      f4:	02012503          	lw	a0,32(sp)
      f8:	01c12483          	lw	s1,28(sp)
      fc:	01812403          	lw	s0,24(sp)
     100:	01412383          	lw	t2,20(sp)
     104:	01012303          	lw	t1,16(sp)
     108:	00c12283          	lw	t0,12(sp)
     10c:	00812203          	lw	tp,8(sp)
     110:	00412183          	lw	gp,4(sp)
     114:	00012083          	lw	ra,0(sp)
     118:	30200073          	mret

0000011c <_trap_isr>:
     11c:	342022f3          	csrr	t0,mcause
     120:	00028663          	beqz	t0,12c <_trap_exception>
     124:	13c000ef          	jal	ra,260 <isr>
     128:	30200073          	mret

0000012c <_trap_exception>:
     12c:	2a8000ef          	jal	ra,3d4 <isr_exception>
     130:	0040006f          	j	134 <_dead_loop>

00000134 <_dead_loop>:
     134:	0000006f          	j	134 <_dead_loop>

00000138 <alg_test>:
     138:	fd010113          	addi	sp,sp,-48
     13c:	02112623          	sw	ra,44(sp)
     140:	02812423          	sw	s0,40(sp)
     144:	03010413          	addi	s0,sp,48
     148:	800007b7          	lui	a5,0x80000
     14c:	fef42623          	sw	a5,-20(s0)
     150:	800007b7          	lui	a5,0x80000
     154:	00478793          	addi	a5,a5,4 # 80000004 <_end+0x3ffffc44>
     158:	fef42423          	sw	a5,-24(s0)
     15c:	00200793          	li	a5,2
     160:	fef42223          	sw	a5,-28(s0)
     164:	fec42783          	lw	a5,-20(s0)
     168:	0007a783          	lw	a5,0(a5)
     16c:	fef42023          	sw	a5,-32(s0)
     170:	fe842783          	lw	a5,-24(s0)
     174:	0007a783          	lw	a5,0(a5)
     178:	fcf42e23          	sw	a5,-36(s0)
     17c:	fdc42583          	lw	a1,-36(s0)
     180:	fe042503          	lw	a0,-32(s0)
     184:	7fc010ef          	jal	ra,1980 <__mulsi3>
     188:	00050793          	mv	a5,a0
     18c:	00179713          	slli	a4,a5,0x1
     190:	fe442783          	lw	a5,-28(s0)
     194:	00f70733          	add	a4,a4,a5
     198:	fec42783          	lw	a5,-20(s0)
     19c:	00e7a023          	sw	a4,0(a5)
     1a0:	fdc42583          	lw	a1,-36(s0)
     1a4:	fe042503          	lw	a0,-32(s0)
     1a8:	7d8010ef          	jal	ra,1980 <__mulsi3>
     1ac:	00050793          	mv	a5,a0
     1b0:	00179793          	slli	a5,a5,0x1
     1b4:	fcf42c23          	sw	a5,-40(s0)
     1b8:	fd842583          	lw	a1,-40(s0)
     1bc:	400007b7          	lui	a5,0x40000
     1c0:	01878513          	addi	a0,a5,24 # 40000018 <upper_digits+0x4>
     1c4:	1ac010ef          	jal	ra,1370 <ee_printf>
     1c8:	fd842783          	lw	a5,-40(s0)
     1cc:	00078513          	mv	a0,a5
     1d0:	02c12083          	lw	ra,44(sp)
     1d4:	02812403          	lw	s0,40(sp)
     1d8:	03010113          	addi	sp,sp,48
     1dc:	00008067          	ret

000001e0 <tt>:
     1e0:	fe010113          	addi	sp,sp,-32
     1e4:	00112e23          	sw	ra,28(sp)
     1e8:	00812c23          	sw	s0,24(sp)
     1ec:	02010413          	addi	s0,sp,32
     1f0:	f49ff0ef          	jal	ra,138 <alg_test>
     1f4:	fea42623          	sw	a0,-20(s0)
     1f8:	00000013          	nop
     1fc:	00078513          	mv	a0,a5
     200:	01c12083          	lw	ra,28(sp)
     204:	01812403          	lw	s0,24(sp)
     208:	02010113          	addi	sp,sp,32
     20c:	00008067          	ret

00000210 <main>:
     210:	fe010113          	addi	sp,sp,-32
     214:	00112e23          	sw	ra,28(sp)
     218:	00812c23          	sw	s0,24(sp)
     21c:	02010413          	addi	s0,sp,32
     220:	400007b7          	lui	a5,0x40000
     224:	02478513          	addi	a0,a5,36 # 40000024 <upper_digits+0x10>
     228:	148010ef          	jal	ra,1370 <ee_printf>
     22c:	400007b7          	lui	a5,0x40000
     230:	04c78513          	addi	a0,a5,76 # 4000004c <upper_digits+0x38>
     234:	13c010ef          	jal	ra,1370 <ee_printf>
     238:	fa9ff0ef          	jal	ra,1e0 <tt>
     23c:	fea42623          	sw	a0,-20(s0)
     240:	800007b7          	lui	a5,0x80000
     244:	00878793          	addi	a5,a5,8 # 80000008 <_end+0x3ffffc48>
     248:	fef42423          	sw	a5,-24(s0)
     24c:	fe842783          	lw	a5,-24(s0)
     250:	fec42703          	lw	a4,-20(s0)
     254:	00e7a023          	sw	a4,0(a5)
     258:	3fc010ef          	jal	ra,1654 <led_init>
     25c:	0000006f          	j	25c <main+0x4c>

00000260 <isr>:
     260:	fe010113          	addi	sp,sp,-32
     264:	00112e23          	sw	ra,28(sp)
     268:	00812c23          	sw	s0,24(sp)
     26c:	02010413          	addi	s0,sp,32
     270:	300022f3          	csrr	t0,mstatus
     274:	ff72f293          	andi	t0,t0,-9
     278:	30029073          	csrw	mstatus,t0
     27c:	400007b7          	lui	a5,0x40000
     280:	0007a783          	lw	a5,0(a5) # 40000000 <uart_rx_intr_flag>
     284:	0007a703          	lw	a4,0(a5)
     288:	00100793          	li	a5,1
     28c:	10f71e63          	bne	a4,a5,3a8 <isr+0x148>
     290:	400007b7          	lui	a5,0x40000
     294:	0087a783          	lw	a5,8(a5) # 40000008 <uart_rx_data>
     298:	0007a703          	lw	a4,0(a5)
     29c:	00a00793          	li	a5,10
     2a0:	06f70463          	beq	a4,a5,308 <isr+0xa8>
     2a4:	400007b7          	lui	a5,0x40000
     2a8:	0087a783          	lw	a5,8(a5) # 40000008 <uart_rx_data>
     2ac:	0007a703          	lw	a4,0(a5)
     2b0:	400007b7          	lui	a5,0x40000
     2b4:	3c07a783          	lw	a5,960(a5) # 400003c0 <_end>
     2b8:	0ff77713          	andi	a4,a4,255
     2bc:	400006b7          	lui	a3,0x40000
     2c0:	3b068693          	addi	a3,a3,944 # 400003b0 <uart_rx_buffer>
     2c4:	00f687b3          	add	a5,a3,a5
     2c8:	00e78023          	sb	a4,0(a5)
     2cc:	400007b7          	lui	a5,0x40000
     2d0:	3c07a783          	lw	a5,960(a5) # 400003c0 <_end>
     2d4:	00178713          	addi	a4,a5,1
     2d8:	400007b7          	lui	a5,0x40000
     2dc:	3ce7a023          	sw	a4,960(a5) # 400003c0 <_end>
     2e0:	400007b7          	lui	a5,0x40000
     2e4:	3c07a703          	lw	a4,960(a5) # 400003c0 <_end>
     2e8:	00f00793          	li	a5,15
     2ec:	0ae7d663          	bge	a5,a4,398 <isr+0x138>
     2f0:	400007b7          	lui	a5,0x40000
     2f4:	05478513          	addi	a0,a5,84 # 40000054 <upper_digits+0x40>
     2f8:	078010ef          	jal	ra,1370 <ee_printf>
     2fc:	400007b7          	lui	a5,0x40000
     300:	3c07a023          	sw	zero,960(a5) # 400003c0 <_end>
     304:	0940006f          	j	398 <isr+0x138>
     308:	400007b7          	lui	a5,0x40000
     30c:	3c07a783          	lw	a5,960(a5) # 400003c0 <_end>
     310:	40000737          	lui	a4,0x40000
     314:	3b070713          	addi	a4,a4,944 # 400003b0 <uart_rx_buffer>
     318:	00f707b3          	add	a5,a4,a5
     31c:	00078023          	sb	zero,0(a5)
     320:	400007b7          	lui	a5,0x40000
     324:	09078513          	addi	a0,a5,144 # 40000090 <upper_digits+0x7c>
     328:	048010ef          	jal	ra,1370 <ee_printf>
     32c:	400007b7          	lui	a5,0x40000
     330:	00c7a783          	lw	a5,12(a5) # 4000000c <cmd_str>
     334:	00078513          	mv	a0,a5
     338:	0f0010ef          	jal	ra,1428 <match_cmd>
     33c:	fe042623          	sw	zero,-20(s0)
     340:	0340006f          	j	374 <isr+0x114>
     344:	400007b7          	lui	a5,0x40000
     348:	00c7a703          	lw	a4,12(a5) # 4000000c <cmd_str>
     34c:	fec42783          	lw	a5,-20(s0)
     350:	00f707b3          	add	a5,a4,a5
     354:	0007c783          	lbu	a5,0(a5)
     358:	00078593          	mv	a1,a5
     35c:	400007b7          	lui	a5,0x40000
     360:	0b078513          	addi	a0,a5,176 # 400000b0 <upper_digits+0x9c>
     364:	00c010ef          	jal	ra,1370 <ee_printf>
     368:	fec42783          	lw	a5,-20(s0)
     36c:	00178793          	addi	a5,a5,1
     370:	fef42623          	sw	a5,-20(s0)
     374:	400007b7          	lui	a5,0x40000
     378:	3c07a783          	lw	a5,960(a5) # 400003c0 <_end>
     37c:	fec42703          	lw	a4,-20(s0)
     380:	fcf742e3          	blt	a4,a5,344 <isr+0xe4>
     384:	400007b7          	lui	a5,0x40000
     388:	0b478513          	addi	a0,a5,180 # 400000b4 <upper_digits+0xa0>
     38c:	7e5000ef          	jal	ra,1370 <ee_printf>
     390:	400007b7          	lui	a5,0x40000
     394:	3c07a023          	sw	zero,960(a5) # 400003c0 <_end>
     398:	400007b7          	lui	a5,0x40000
     39c:	0047a783          	lw	a5,4(a5) # 40000004 <uart_rx_intr_flag_clr>
     3a0:	0007a023          	sw	zero,0(a5)
     3a4:	0100006f          	j	3b4 <isr+0x154>
     3a8:	400007b7          	lui	a5,0x40000
     3ac:	0b878513          	addi	a0,a5,184 # 400000b8 <upper_digits+0xa4>
     3b0:	7c1000ef          	jal	ra,1370 <ee_printf>
     3b4:	300022f3          	csrr	t0,mstatus
     3b8:	fff2e293          	ori	t0,t0,-1
     3bc:	30029073          	csrw	mstatus,t0
     3c0:	00000013          	nop
     3c4:	01c12083          	lw	ra,28(sp)
     3c8:	01812403          	lw	s0,24(sp)
     3cc:	02010113          	addi	sp,sp,32
     3d0:	00008067          	ret

000003d4 <isr_exception>:
     3d4:	ff010113          	addi	sp,sp,-16
     3d8:	00112623          	sw	ra,12(sp)
     3dc:	00812423          	sw	s0,8(sp)
     3e0:	01010413          	addi	s0,sp,16
     3e4:	400007b7          	lui	a5,0x40000
     3e8:	0dc78513          	addi	a0,a5,220 # 400000dc <upper_digits+0xc8>
     3ec:	785000ef          	jal	ra,1370 <ee_printf>
     3f0:	00000013          	nop
     3f4:	00c12083          	lw	ra,12(sp)
     3f8:	00812403          	lw	s0,8(sp)
     3fc:	01010113          	addi	sp,sp,16
     400:	00008067          	ret

00000404 <strnlen>:
     404:	fd010113          	addi	sp,sp,-48
     408:	02812623          	sw	s0,44(sp)
     40c:	03010413          	addi	s0,sp,48
     410:	fca42e23          	sw	a0,-36(s0)
     414:	fcb42c23          	sw	a1,-40(s0)
     418:	fdc42783          	lw	a5,-36(s0)
     41c:	fef42623          	sw	a5,-20(s0)
     420:	0100006f          	j	430 <strnlen+0x2c>
     424:	fec42783          	lw	a5,-20(s0)
     428:	00178793          	addi	a5,a5,1
     42c:	fef42623          	sw	a5,-20(s0)
     430:	fec42783          	lw	a5,-20(s0)
     434:	0007c783          	lbu	a5,0(a5)
     438:	00078a63          	beqz	a5,44c <strnlen+0x48>
     43c:	fd842783          	lw	a5,-40(s0)
     440:	fff78713          	addi	a4,a5,-1
     444:	fce42c23          	sw	a4,-40(s0)
     448:	fc079ee3          	bnez	a5,424 <strnlen+0x20>
     44c:	fec42703          	lw	a4,-20(s0)
     450:	fdc42783          	lw	a5,-36(s0)
     454:	40f707b3          	sub	a5,a4,a5
     458:	00078513          	mv	a0,a5
     45c:	02c12403          	lw	s0,44(sp)
     460:	03010113          	addi	sp,sp,48
     464:	00008067          	ret

00000468 <skip_atoi>:
     468:	fd010113          	addi	sp,sp,-48
     46c:	02812623          	sw	s0,44(sp)
     470:	03010413          	addi	s0,sp,48
     474:	fca42e23          	sw	a0,-36(s0)
     478:	fe042623          	sw	zero,-20(s0)
     47c:	0400006f          	j	4bc <skip_atoi+0x54>
     480:	fec42703          	lw	a4,-20(s0)
     484:	00070793          	mv	a5,a4
     488:	00279793          	slli	a5,a5,0x2
     48c:	00e787b3          	add	a5,a5,a4
     490:	00179793          	slli	a5,a5,0x1
     494:	00078613          	mv	a2,a5
     498:	fdc42783          	lw	a5,-36(s0)
     49c:	0007a783          	lw	a5,0(a5)
     4a0:	00178693          	addi	a3,a5,1
     4a4:	fdc42703          	lw	a4,-36(s0)
     4a8:	00d72023          	sw	a3,0(a4)
     4ac:	0007c783          	lbu	a5,0(a5)
     4b0:	00f607b3          	add	a5,a2,a5
     4b4:	fd078793          	addi	a5,a5,-48
     4b8:	fef42623          	sw	a5,-20(s0)
     4bc:	fdc42783          	lw	a5,-36(s0)
     4c0:	0007a783          	lw	a5,0(a5)
     4c4:	0007c703          	lbu	a4,0(a5)
     4c8:	02f00793          	li	a5,47
     4cc:	00e7fc63          	bgeu	a5,a4,4e4 <skip_atoi+0x7c>
     4d0:	fdc42783          	lw	a5,-36(s0)
     4d4:	0007a783          	lw	a5,0(a5)
     4d8:	0007c703          	lbu	a4,0(a5)
     4dc:	03900793          	li	a5,57
     4e0:	fae7f0e3          	bgeu	a5,a4,480 <skip_atoi+0x18>
     4e4:	fec42783          	lw	a5,-20(s0)
     4e8:	00078513          	mv	a0,a5
     4ec:	02c12403          	lw	s0,44(sp)
     4f0:	03010113          	addi	sp,sp,48
     4f4:	00008067          	ret

000004f8 <number>:
     4f8:	f8010113          	addi	sp,sp,-128
     4fc:	06112e23          	sw	ra,124(sp)
     500:	06812c23          	sw	s0,120(sp)
     504:	08010413          	addi	s0,sp,128
     508:	f8a42e23          	sw	a0,-100(s0)
     50c:	f8b42c23          	sw	a1,-104(s0)
     510:	f8c42a23          	sw	a2,-108(s0)
     514:	f8d42823          	sw	a3,-112(s0)
     518:	f8e42623          	sw	a4,-116(s0)
     51c:	f8f42423          	sw	a5,-120(s0)
     520:	400007b7          	lui	a5,0x40000
     524:	0107a783          	lw	a5,16(a5) # 40000010 <digits>
     528:	fef42423          	sw	a5,-24(s0)
     52c:	f8842783          	lw	a5,-120(s0)
     530:	0407f793          	andi	a5,a5,64
     534:	00078863          	beqz	a5,544 <number+0x4c>
     538:	400007b7          	lui	a5,0x40000
     53c:	0147a783          	lw	a5,20(a5) # 40000014 <upper_digits>
     540:	fef42423          	sw	a5,-24(s0)
     544:	f8842783          	lw	a5,-120(s0)
     548:	0107f793          	andi	a5,a5,16
     54c:	00078863          	beqz	a5,55c <number+0x64>
     550:	f8842783          	lw	a5,-120(s0)
     554:	ffe7f793          	andi	a5,a5,-2
     558:	f8f42423          	sw	a5,-120(s0)
     55c:	f9442703          	lw	a4,-108(s0)
     560:	00100793          	li	a5,1
     564:	00e7d863          	bge	a5,a4,574 <number+0x7c>
     568:	f9442703          	lw	a4,-108(s0)
     56c:	02400793          	li	a5,36
     570:	00e7d663          	bge	a5,a4,57c <number+0x84>
     574:	00000793          	li	a5,0
     578:	3100006f          	j	888 <number+0x390>
     57c:	f8842783          	lw	a5,-120(s0)
     580:	0017f793          	andi	a5,a5,1
     584:	00078663          	beqz	a5,590 <number+0x98>
     588:	03000793          	li	a5,48
     58c:	0080006f          	j	594 <number+0x9c>
     590:	02000793          	li	a5,32
     594:	fef401a3          	sb	a5,-29(s0)
     598:	fe0407a3          	sb	zero,-17(s0)
     59c:	f8842783          	lw	a5,-120(s0)
     5a0:	0027f793          	andi	a5,a5,2
     5a4:	06078a63          	beqz	a5,618 <number+0x120>
     5a8:	f9842783          	lw	a5,-104(s0)
     5ac:	0207d463          	bgez	a5,5d4 <number+0xdc>
     5b0:	02d00793          	li	a5,45
     5b4:	fef407a3          	sb	a5,-17(s0)
     5b8:	f9842783          	lw	a5,-104(s0)
     5bc:	40f007b3          	neg	a5,a5
     5c0:	f8f42c23          	sw	a5,-104(s0)
     5c4:	f9042783          	lw	a5,-112(s0)
     5c8:	fff78793          	addi	a5,a5,-1
     5cc:	f8f42823          	sw	a5,-112(s0)
     5d0:	0480006f          	j	618 <number+0x120>
     5d4:	f8842783          	lw	a5,-120(s0)
     5d8:	0047f793          	andi	a5,a5,4
     5dc:	00078e63          	beqz	a5,5f8 <number+0x100>
     5e0:	02b00793          	li	a5,43
     5e4:	fef407a3          	sb	a5,-17(s0)
     5e8:	f9042783          	lw	a5,-112(s0)
     5ec:	fff78793          	addi	a5,a5,-1
     5f0:	f8f42823          	sw	a5,-112(s0)
     5f4:	0240006f          	j	618 <number+0x120>
     5f8:	f8842783          	lw	a5,-120(s0)
     5fc:	0087f793          	andi	a5,a5,8
     600:	00078c63          	beqz	a5,618 <number+0x120>
     604:	02000793          	li	a5,32
     608:	fef407a3          	sb	a5,-17(s0)
     60c:	f9042783          	lw	a5,-112(s0)
     610:	fff78793          	addi	a5,a5,-1
     614:	f8f42823          	sw	a5,-112(s0)
     618:	f8842783          	lw	a5,-120(s0)
     61c:	0207f793          	andi	a5,a5,32
     620:	02078c63          	beqz	a5,658 <number+0x160>
     624:	f9442703          	lw	a4,-108(s0)
     628:	01000793          	li	a5,16
     62c:	00f71a63          	bne	a4,a5,640 <number+0x148>
     630:	f9042783          	lw	a5,-112(s0)
     634:	ffe78793          	addi	a5,a5,-2
     638:	f8f42823          	sw	a5,-112(s0)
     63c:	01c0006f          	j	658 <number+0x160>
     640:	f9442703          	lw	a4,-108(s0)
     644:	00800793          	li	a5,8
     648:	00f71863          	bne	a4,a5,658 <number+0x160>
     64c:	f9042783          	lw	a5,-112(s0)
     650:	fff78793          	addi	a5,a5,-1
     654:	f8f42823          	sw	a5,-112(s0)
     658:	fe042223          	sw	zero,-28(s0)
     65c:	f9842783          	lw	a5,-104(s0)
     660:	08079063          	bnez	a5,6e0 <number+0x1e8>
     664:	fe442783          	lw	a5,-28(s0)
     668:	00178713          	addi	a4,a5,1
     66c:	fee42223          	sw	a4,-28(s0)
     670:	ff040713          	addi	a4,s0,-16
     674:	00f707b3          	add	a5,a4,a5
     678:	03000713          	li	a4,48
     67c:	fae78823          	sb	a4,-80(a5)
     680:	0680006f          	j	6e8 <number+0x1f0>
     684:	f9842783          	lw	a5,-104(s0)
     688:	f9442703          	lw	a4,-108(s0)
     68c:	00070593          	mv	a1,a4
     690:	00078513          	mv	a0,a5
     694:	360010ef          	jal	ra,19f4 <__umodsi3>
     698:	00050793          	mv	a5,a0
     69c:	00078713          	mv	a4,a5
     6a0:	fe842783          	lw	a5,-24(s0)
     6a4:	00e78733          	add	a4,a5,a4
     6a8:	fe442783          	lw	a5,-28(s0)
     6ac:	00178693          	addi	a3,a5,1
     6b0:	fed42223          	sw	a3,-28(s0)
     6b4:	00074703          	lbu	a4,0(a4)
     6b8:	ff040693          	addi	a3,s0,-16
     6bc:	00f687b3          	add	a5,a3,a5
     6c0:	fae78823          	sb	a4,-80(a5)
     6c4:	f9842783          	lw	a5,-104(s0)
     6c8:	f9442703          	lw	a4,-108(s0)
     6cc:	00070593          	mv	a1,a4
     6d0:	00078513          	mv	a0,a5
     6d4:	2d8010ef          	jal	ra,19ac <__udivsi3>
     6d8:	00050793          	mv	a5,a0
     6dc:	f8f42c23          	sw	a5,-104(s0)
     6e0:	f9842783          	lw	a5,-104(s0)
     6e4:	fa0790e3          	bnez	a5,684 <number+0x18c>
     6e8:	fe442703          	lw	a4,-28(s0)
     6ec:	f8c42783          	lw	a5,-116(s0)
     6f0:	00e7d663          	bge	a5,a4,6fc <number+0x204>
     6f4:	fe442783          	lw	a5,-28(s0)
     6f8:	f8f42623          	sw	a5,-116(s0)
     6fc:	f9042703          	lw	a4,-112(s0)
     700:	f8c42783          	lw	a5,-116(s0)
     704:	40f707b3          	sub	a5,a4,a5
     708:	f8f42823          	sw	a5,-112(s0)
     70c:	f8842783          	lw	a5,-120(s0)
     710:	0117f793          	andi	a5,a5,17
     714:	02079663          	bnez	a5,740 <number+0x248>
     718:	0180006f          	j	730 <number+0x238>
     71c:	f9c42783          	lw	a5,-100(s0)
     720:	00178713          	addi	a4,a5,1
     724:	f8e42e23          	sw	a4,-100(s0)
     728:	02000713          	li	a4,32
     72c:	00e78023          	sb	a4,0(a5)
     730:	f9042783          	lw	a5,-112(s0)
     734:	fff78713          	addi	a4,a5,-1
     738:	f8e42823          	sw	a4,-112(s0)
     73c:	fef040e3          	bgtz	a5,71c <number+0x224>
     740:	fef44783          	lbu	a5,-17(s0)
     744:	00078c63          	beqz	a5,75c <number+0x264>
     748:	f9c42783          	lw	a5,-100(s0)
     74c:	00178713          	addi	a4,a5,1
     750:	f8e42e23          	sw	a4,-100(s0)
     754:	fef44703          	lbu	a4,-17(s0)
     758:	00e78023          	sb	a4,0(a5)
     75c:	f8842783          	lw	a5,-120(s0)
     760:	0207f793          	andi	a5,a5,32
     764:	06078263          	beqz	a5,7c8 <number+0x2d0>
     768:	f9442703          	lw	a4,-108(s0)
     76c:	00800793          	li	a5,8
     770:	00f71e63          	bne	a4,a5,78c <number+0x294>
     774:	f9c42783          	lw	a5,-100(s0)
     778:	00178713          	addi	a4,a5,1
     77c:	f8e42e23          	sw	a4,-100(s0)
     780:	03000713          	li	a4,48
     784:	00e78023          	sb	a4,0(a5)
     788:	0400006f          	j	7c8 <number+0x2d0>
     78c:	f9442703          	lw	a4,-108(s0)
     790:	01000793          	li	a5,16
     794:	02f71a63          	bne	a4,a5,7c8 <number+0x2d0>
     798:	f9c42783          	lw	a5,-100(s0)
     79c:	00178713          	addi	a4,a5,1
     7a0:	f8e42e23          	sw	a4,-100(s0)
     7a4:	03000713          	li	a4,48
     7a8:	00e78023          	sb	a4,0(a5)
     7ac:	400007b7          	lui	a5,0x40000
     7b0:	0107a703          	lw	a4,16(a5) # 40000010 <digits>
     7b4:	f9c42783          	lw	a5,-100(s0)
     7b8:	00178693          	addi	a3,a5,1
     7bc:	f8d42e23          	sw	a3,-100(s0)
     7c0:	02174703          	lbu	a4,33(a4)
     7c4:	00e78023          	sb	a4,0(a5)
     7c8:	f8842783          	lw	a5,-120(s0)
     7cc:	0107f793          	andi	a5,a5,16
     7d0:	04079263          	bnez	a5,814 <number+0x31c>
     7d4:	0180006f          	j	7ec <number+0x2f4>
     7d8:	f9c42783          	lw	a5,-100(s0)
     7dc:	00178713          	addi	a4,a5,1
     7e0:	f8e42e23          	sw	a4,-100(s0)
     7e4:	fe344703          	lbu	a4,-29(s0)
     7e8:	00e78023          	sb	a4,0(a5)
     7ec:	f9042783          	lw	a5,-112(s0)
     7f0:	fff78713          	addi	a4,a5,-1
     7f4:	f8e42823          	sw	a4,-112(s0)
     7f8:	fef040e3          	bgtz	a5,7d8 <number+0x2e0>
     7fc:	0180006f          	j	814 <number+0x31c>
     800:	f9c42783          	lw	a5,-100(s0)
     804:	00178713          	addi	a4,a5,1
     808:	f8e42e23          	sw	a4,-100(s0)
     80c:	03000713          	li	a4,48
     810:	00e78023          	sb	a4,0(a5)
     814:	f8c42783          	lw	a5,-116(s0)
     818:	fff78713          	addi	a4,a5,-1
     81c:	f8e42623          	sw	a4,-116(s0)
     820:	fe442703          	lw	a4,-28(s0)
     824:	fcf74ee3          	blt	a4,a5,800 <number+0x308>
     828:	0240006f          	j	84c <number+0x354>
     82c:	f9c42783          	lw	a5,-100(s0)
     830:	00178713          	addi	a4,a5,1
     834:	f8e42e23          	sw	a4,-100(s0)
     838:	fe442703          	lw	a4,-28(s0)
     83c:	ff040693          	addi	a3,s0,-16
     840:	00e68733          	add	a4,a3,a4
     844:	fb074703          	lbu	a4,-80(a4)
     848:	00e78023          	sb	a4,0(a5)
     84c:	fe442783          	lw	a5,-28(s0)
     850:	fff78713          	addi	a4,a5,-1
     854:	fee42223          	sw	a4,-28(s0)
     858:	fcf04ae3          	bgtz	a5,82c <number+0x334>
     85c:	0180006f          	j	874 <number+0x37c>
     860:	f9c42783          	lw	a5,-100(s0)
     864:	00178713          	addi	a4,a5,1
     868:	f8e42e23          	sw	a4,-100(s0)
     86c:	02000713          	li	a4,32
     870:	00e78023          	sb	a4,0(a5)
     874:	f9042783          	lw	a5,-112(s0)
     878:	fff78713          	addi	a4,a5,-1
     87c:	f8e42823          	sw	a4,-112(s0)
     880:	fef040e3          	bgtz	a5,860 <number+0x368>
     884:	f9c42783          	lw	a5,-100(s0)
     888:	00078513          	mv	a0,a5
     88c:	07c12083          	lw	ra,124(sp)
     890:	07812403          	lw	s0,120(sp)
     894:	08010113          	addi	sp,sp,128
     898:	00008067          	ret

0000089c <eaddr>:
     89c:	fa010113          	addi	sp,sp,-96
     8a0:	04812e23          	sw	s0,92(sp)
     8a4:	06010413          	addi	s0,sp,96
     8a8:	faa42e23          	sw	a0,-68(s0)
     8ac:	fab42c23          	sw	a1,-72(s0)
     8b0:	fac42a23          	sw	a2,-76(s0)
     8b4:	fad42823          	sw	a3,-80(s0)
     8b8:	fae42623          	sw	a4,-84(s0)
     8bc:	400007b7          	lui	a5,0x40000
     8c0:	0107a783          	lw	a5,16(a5) # 40000010 <digits>
     8c4:	fef42623          	sw	a5,-20(s0)
     8c8:	fac42783          	lw	a5,-84(s0)
     8cc:	0407f793          	andi	a5,a5,64
     8d0:	00078863          	beqz	a5,8e0 <eaddr+0x44>
     8d4:	400007b7          	lui	a5,0x40000
     8d8:	0147a783          	lw	a5,20(a5) # 40000014 <upper_digits>
     8dc:	fef42623          	sw	a5,-20(s0)
     8e0:	fe042223          	sw	zero,-28(s0)
     8e4:	fe042423          	sw	zero,-24(s0)
     8e8:	0ac0006f          	j	994 <eaddr+0xf8>
     8ec:	fe842783          	lw	a5,-24(s0)
     8f0:	02078063          	beqz	a5,910 <eaddr+0x74>
     8f4:	fe442783          	lw	a5,-28(s0)
     8f8:	00178713          	addi	a4,a5,1
     8fc:	fee42223          	sw	a4,-28(s0)
     900:	ff040713          	addi	a4,s0,-16
     904:	00f707b3          	add	a5,a4,a5
     908:	03a00713          	li	a4,58
     90c:	fce78e23          	sb	a4,-36(a5)
     910:	fe842783          	lw	a5,-24(s0)
     914:	fb842703          	lw	a4,-72(s0)
     918:	00f707b3          	add	a5,a4,a5
     91c:	0007c783          	lbu	a5,0(a5)
     920:	0047d793          	srli	a5,a5,0x4
     924:	0ff7f793          	andi	a5,a5,255
     928:	00078713          	mv	a4,a5
     92c:	fec42783          	lw	a5,-20(s0)
     930:	00e78733          	add	a4,a5,a4
     934:	fe442783          	lw	a5,-28(s0)
     938:	00178693          	addi	a3,a5,1
     93c:	fed42223          	sw	a3,-28(s0)
     940:	00074703          	lbu	a4,0(a4)
     944:	ff040693          	addi	a3,s0,-16
     948:	00f687b3          	add	a5,a3,a5
     94c:	fce78e23          	sb	a4,-36(a5)
     950:	fe842783          	lw	a5,-24(s0)
     954:	fb842703          	lw	a4,-72(s0)
     958:	00f707b3          	add	a5,a4,a5
     95c:	0007c783          	lbu	a5,0(a5)
     960:	00f7f793          	andi	a5,a5,15
     964:	fec42703          	lw	a4,-20(s0)
     968:	00f70733          	add	a4,a4,a5
     96c:	fe442783          	lw	a5,-28(s0)
     970:	00178693          	addi	a3,a5,1
     974:	fed42223          	sw	a3,-28(s0)
     978:	00074703          	lbu	a4,0(a4)
     97c:	ff040693          	addi	a3,s0,-16
     980:	00f687b3          	add	a5,a3,a5
     984:	fce78e23          	sb	a4,-36(a5)
     988:	fe842783          	lw	a5,-24(s0)
     98c:	00178793          	addi	a5,a5,1
     990:	fef42423          	sw	a5,-24(s0)
     994:	fe842703          	lw	a4,-24(s0)
     998:	00500793          	li	a5,5
     99c:	f4e7d8e3          	bge	a5,a4,8ec <eaddr+0x50>
     9a0:	fac42783          	lw	a5,-84(s0)
     9a4:	0107f793          	andi	a5,a5,16
     9a8:	02079863          	bnez	a5,9d8 <eaddr+0x13c>
     9ac:	0180006f          	j	9c4 <eaddr+0x128>
     9b0:	fbc42783          	lw	a5,-68(s0)
     9b4:	00178713          	addi	a4,a5,1
     9b8:	fae42e23          	sw	a4,-68(s0)
     9bc:	02000713          	li	a4,32
     9c0:	00e78023          	sb	a4,0(a5)
     9c4:	fb442783          	lw	a5,-76(s0)
     9c8:	fff78713          	addi	a4,a5,-1
     9cc:	fae42a23          	sw	a4,-76(s0)
     9d0:	fe442703          	lw	a4,-28(s0)
     9d4:	fcf74ee3          	blt	a4,a5,9b0 <eaddr+0x114>
     9d8:	fe042423          	sw	zero,-24(s0)
     9dc:	0300006f          	j	a0c <eaddr+0x170>
     9e0:	fbc42783          	lw	a5,-68(s0)
     9e4:	00178713          	addi	a4,a5,1
     9e8:	fae42e23          	sw	a4,-68(s0)
     9ec:	fe842703          	lw	a4,-24(s0)
     9f0:	ff040693          	addi	a3,s0,-16
     9f4:	00e68733          	add	a4,a3,a4
     9f8:	fdc74703          	lbu	a4,-36(a4)
     9fc:	00e78023          	sb	a4,0(a5)
     a00:	fe842783          	lw	a5,-24(s0)
     a04:	00178793          	addi	a5,a5,1
     a08:	fef42423          	sw	a5,-24(s0)
     a0c:	fe842703          	lw	a4,-24(s0)
     a10:	fe442783          	lw	a5,-28(s0)
     a14:	fcf746e3          	blt	a4,a5,9e0 <eaddr+0x144>
     a18:	0180006f          	j	a30 <eaddr+0x194>
     a1c:	fbc42783          	lw	a5,-68(s0)
     a20:	00178713          	addi	a4,a5,1
     a24:	fae42e23          	sw	a4,-68(s0)
     a28:	02000713          	li	a4,32
     a2c:	00e78023          	sb	a4,0(a5)
     a30:	fb442783          	lw	a5,-76(s0)
     a34:	fff78713          	addi	a4,a5,-1
     a38:	fae42a23          	sw	a4,-76(s0)
     a3c:	fe442703          	lw	a4,-28(s0)
     a40:	fcf74ee3          	blt	a4,a5,a1c <eaddr+0x180>
     a44:	fbc42783          	lw	a5,-68(s0)
     a48:	00078513          	mv	a0,a5
     a4c:	05c12403          	lw	s0,92(sp)
     a50:	06010113          	addi	sp,sp,96
     a54:	00008067          	ret

00000a58 <iaddr>:
     a58:	fa010113          	addi	sp,sp,-96
     a5c:	04112e23          	sw	ra,92(sp)
     a60:	04812c23          	sw	s0,88(sp)
     a64:	04912a23          	sw	s1,84(sp)
     a68:	06010413          	addi	s0,sp,96
     a6c:	faa42e23          	sw	a0,-68(s0)
     a70:	fab42c23          	sw	a1,-72(s0)
     a74:	fac42a23          	sw	a2,-76(s0)
     a78:	fad42823          	sw	a3,-80(s0)
     a7c:	fae42623          	sw	a4,-84(s0)
     a80:	fe042223          	sw	zero,-28(s0)
     a84:	fe042623          	sw	zero,-20(s0)
     a88:	1bc0006f          	j	c44 <iaddr+0x1ec>
     a8c:	fec42783          	lw	a5,-20(s0)
     a90:	02078063          	beqz	a5,ab0 <iaddr+0x58>
     a94:	fe442783          	lw	a5,-28(s0)
     a98:	00178713          	addi	a4,a5,1
     a9c:	fee42223          	sw	a4,-28(s0)
     aa0:	ff040713          	addi	a4,s0,-16
     aa4:	00f707b3          	add	a5,a4,a5
     aa8:	02e00713          	li	a4,46
     aac:	fce78e23          	sb	a4,-36(a5)
     ab0:	fec42783          	lw	a5,-20(s0)
     ab4:	fb842703          	lw	a4,-72(s0)
     ab8:	00f707b3          	add	a5,a4,a5
     abc:	0007c783          	lbu	a5,0(a5)
     ac0:	fef42423          	sw	a5,-24(s0)
     ac4:	fe842783          	lw	a5,-24(s0)
     ac8:	02079663          	bnez	a5,af4 <iaddr+0x9c>
     acc:	400007b7          	lui	a5,0x40000
     ad0:	0107a703          	lw	a4,16(a5) # 40000010 <digits>
     ad4:	fe442783          	lw	a5,-28(s0)
     ad8:	00178693          	addi	a3,a5,1
     adc:	fed42223          	sw	a3,-28(s0)
     ae0:	00074703          	lbu	a4,0(a4)
     ae4:	ff040693          	addi	a3,s0,-16
     ae8:	00f687b3          	add	a5,a3,a5
     aec:	fce78e23          	sb	a4,-36(a5)
     af0:	1480006f          	j	c38 <iaddr+0x1e0>
     af4:	fe842703          	lw	a4,-24(s0)
     af8:	06300793          	li	a5,99
     afc:	0ae7d863          	bge	a5,a4,bac <iaddr+0x154>
     b00:	400007b7          	lui	a5,0x40000
     b04:	0107a483          	lw	s1,16(a5) # 40000010 <digits>
     b08:	fe842783          	lw	a5,-24(s0)
     b0c:	06400593          	li	a1,100
     b10:	00078513          	mv	a0,a5
     b14:	691000ef          	jal	ra,19a4 <__divsi3>
     b18:	00050793          	mv	a5,a0
     b1c:	00f48733          	add	a4,s1,a5
     b20:	fe442783          	lw	a5,-28(s0)
     b24:	00178693          	addi	a3,a5,1
     b28:	fed42223          	sw	a3,-28(s0)
     b2c:	00074703          	lbu	a4,0(a4)
     b30:	ff040693          	addi	a3,s0,-16
     b34:	00f687b3          	add	a5,a3,a5
     b38:	fce78e23          	sb	a4,-36(a5)
     b3c:	fe842783          	lw	a5,-24(s0)
     b40:	06400593          	li	a1,100
     b44:	00078513          	mv	a0,a5
     b48:	6e1000ef          	jal	ra,1a28 <__modsi3>
     b4c:	00050793          	mv	a5,a0
     b50:	fef42423          	sw	a5,-24(s0)
     b54:	400007b7          	lui	a5,0x40000
     b58:	0107a483          	lw	s1,16(a5) # 40000010 <digits>
     b5c:	fe842783          	lw	a5,-24(s0)
     b60:	00a00593          	li	a1,10
     b64:	00078513          	mv	a0,a5
     b68:	63d000ef          	jal	ra,19a4 <__divsi3>
     b6c:	00050793          	mv	a5,a0
     b70:	00f48733          	add	a4,s1,a5
     b74:	fe442783          	lw	a5,-28(s0)
     b78:	00178693          	addi	a3,a5,1
     b7c:	fed42223          	sw	a3,-28(s0)
     b80:	00074703          	lbu	a4,0(a4)
     b84:	ff040693          	addi	a3,s0,-16
     b88:	00f687b3          	add	a5,a3,a5
     b8c:	fce78e23          	sb	a4,-36(a5)
     b90:	fe842783          	lw	a5,-24(s0)
     b94:	00a00593          	li	a1,10
     b98:	00078513          	mv	a0,a5
     b9c:	68d000ef          	jal	ra,1a28 <__modsi3>
     ba0:	00050793          	mv	a5,a0
     ba4:	fef42423          	sw	a5,-24(s0)
     ba8:	0640006f          	j	c0c <iaddr+0x1b4>
     bac:	fe842703          	lw	a4,-24(s0)
     bb0:	00900793          	li	a5,9
     bb4:	04e7dc63          	bge	a5,a4,c0c <iaddr+0x1b4>
     bb8:	400007b7          	lui	a5,0x40000
     bbc:	0107a483          	lw	s1,16(a5) # 40000010 <digits>
     bc0:	fe842783          	lw	a5,-24(s0)
     bc4:	00a00593          	li	a1,10
     bc8:	00078513          	mv	a0,a5
     bcc:	5d9000ef          	jal	ra,19a4 <__divsi3>
     bd0:	00050793          	mv	a5,a0
     bd4:	00f48733          	add	a4,s1,a5
     bd8:	fe442783          	lw	a5,-28(s0)
     bdc:	00178693          	addi	a3,a5,1
     be0:	fed42223          	sw	a3,-28(s0)
     be4:	00074703          	lbu	a4,0(a4)
     be8:	ff040693          	addi	a3,s0,-16
     bec:	00f687b3          	add	a5,a3,a5
     bf0:	fce78e23          	sb	a4,-36(a5)
     bf4:	fe842783          	lw	a5,-24(s0)
     bf8:	00a00593          	li	a1,10
     bfc:	00078513          	mv	a0,a5
     c00:	629000ef          	jal	ra,1a28 <__modsi3>
     c04:	00050793          	mv	a5,a0
     c08:	fef42423          	sw	a5,-24(s0)
     c0c:	400007b7          	lui	a5,0x40000
     c10:	0107a703          	lw	a4,16(a5) # 40000010 <digits>
     c14:	fe842783          	lw	a5,-24(s0)
     c18:	00f70733          	add	a4,a4,a5
     c1c:	fe442783          	lw	a5,-28(s0)
     c20:	00178693          	addi	a3,a5,1
     c24:	fed42223          	sw	a3,-28(s0)
     c28:	00074703          	lbu	a4,0(a4)
     c2c:	ff040693          	addi	a3,s0,-16
     c30:	00f687b3          	add	a5,a3,a5
     c34:	fce78e23          	sb	a4,-36(a5)
     c38:	fec42783          	lw	a5,-20(s0)
     c3c:	00178793          	addi	a5,a5,1
     c40:	fef42623          	sw	a5,-20(s0)
     c44:	fec42703          	lw	a4,-20(s0)
     c48:	00300793          	li	a5,3
     c4c:	e4e7d0e3          	bge	a5,a4,a8c <iaddr+0x34>
     c50:	fac42783          	lw	a5,-84(s0)
     c54:	0107f793          	andi	a5,a5,16
     c58:	02079863          	bnez	a5,c88 <iaddr+0x230>
     c5c:	0180006f          	j	c74 <iaddr+0x21c>
     c60:	fbc42783          	lw	a5,-68(s0)
     c64:	00178713          	addi	a4,a5,1
     c68:	fae42e23          	sw	a4,-68(s0)
     c6c:	02000713          	li	a4,32
     c70:	00e78023          	sb	a4,0(a5)
     c74:	fb442783          	lw	a5,-76(s0)
     c78:	fff78713          	addi	a4,a5,-1
     c7c:	fae42a23          	sw	a4,-76(s0)
     c80:	fe442703          	lw	a4,-28(s0)
     c84:	fcf74ee3          	blt	a4,a5,c60 <iaddr+0x208>
     c88:	fe042623          	sw	zero,-20(s0)
     c8c:	0300006f          	j	cbc <iaddr+0x264>
     c90:	fbc42783          	lw	a5,-68(s0)
     c94:	00178713          	addi	a4,a5,1
     c98:	fae42e23          	sw	a4,-68(s0)
     c9c:	fec42703          	lw	a4,-20(s0)
     ca0:	ff040693          	addi	a3,s0,-16
     ca4:	00e68733          	add	a4,a3,a4
     ca8:	fdc74703          	lbu	a4,-36(a4)
     cac:	00e78023          	sb	a4,0(a5)
     cb0:	fec42783          	lw	a5,-20(s0)
     cb4:	00178793          	addi	a5,a5,1
     cb8:	fef42623          	sw	a5,-20(s0)
     cbc:	fec42703          	lw	a4,-20(s0)
     cc0:	fe442783          	lw	a5,-28(s0)
     cc4:	fcf746e3          	blt	a4,a5,c90 <iaddr+0x238>
     cc8:	0180006f          	j	ce0 <iaddr+0x288>
     ccc:	fbc42783          	lw	a5,-68(s0)
     cd0:	00178713          	addi	a4,a5,1
     cd4:	fae42e23          	sw	a4,-68(s0)
     cd8:	02000713          	li	a4,32
     cdc:	00e78023          	sb	a4,0(a5)
     ce0:	fb442783          	lw	a5,-76(s0)
     ce4:	fff78713          	addi	a4,a5,-1
     ce8:	fae42a23          	sw	a4,-76(s0)
     cec:	fe442703          	lw	a4,-28(s0)
     cf0:	fcf74ee3          	blt	a4,a5,ccc <iaddr+0x274>
     cf4:	fbc42783          	lw	a5,-68(s0)
     cf8:	00078513          	mv	a0,a5
     cfc:	05c12083          	lw	ra,92(sp)
     d00:	05812403          	lw	s0,88(sp)
     d04:	05412483          	lw	s1,84(sp)
     d08:	06010113          	addi	sp,sp,96
     d0c:	00008067          	ret

00000d10 <ee_vsprintf>:
     d10:	fb010113          	addi	sp,sp,-80
     d14:	04112623          	sw	ra,76(sp)
     d18:	04812423          	sw	s0,72(sp)
     d1c:	05010413          	addi	s0,sp,80
     d20:	faa42e23          	sw	a0,-68(s0)
     d24:	fab42c23          	sw	a1,-72(s0)
     d28:	fac42a23          	sw	a2,-76(s0)
     d2c:	fbc42783          	lw	a5,-68(s0)
     d30:	fef42023          	sw	a5,-32(s0)
     d34:	5ac0006f          	j	12e0 <ee_vsprintf+0x5d0>
     d38:	fb842783          	lw	a5,-72(s0)
     d3c:	0007c703          	lbu	a4,0(a5)
     d40:	02500793          	li	a5,37
     d44:	02f70063          	beq	a4,a5,d64 <ee_vsprintf+0x54>
     d48:	fb842703          	lw	a4,-72(s0)
     d4c:	fe042783          	lw	a5,-32(s0)
     d50:	00178693          	addi	a3,a5,1
     d54:	fed42023          	sw	a3,-32(s0)
     d58:	00074703          	lbu	a4,0(a4)
     d5c:	00e78023          	sb	a4,0(a5)
     d60:	5740006f          	j	12d4 <ee_vsprintf+0x5c4>
     d64:	fc042c23          	sw	zero,-40(s0)
     d68:	fb842783          	lw	a5,-72(s0)
     d6c:	00178793          	addi	a5,a5,1
     d70:	faf42c23          	sw	a5,-72(s0)
     d74:	fb842783          	lw	a5,-72(s0)
     d78:	0007c783          	lbu	a5,0(a5)
     d7c:	fe078793          	addi	a5,a5,-32
     d80:	01000713          	li	a4,16
     d84:	06f76663          	bltu	a4,a5,df0 <ee_vsprintf+0xe0>
     d88:	00279713          	slli	a4,a5,0x2
     d8c:	400007b7          	lui	a5,0x40000
     d90:	15478793          	addi	a5,a5,340 # 40000154 <upper_digits+0x140>
     d94:	00f707b3          	add	a5,a4,a5
     d98:	0007a783          	lw	a5,0(a5)
     d9c:	00078067          	jr	a5
     da0:	fd842783          	lw	a5,-40(s0)
     da4:	0107e793          	ori	a5,a5,16
     da8:	fcf42c23          	sw	a5,-40(s0)
     dac:	fbdff06f          	j	d68 <ee_vsprintf+0x58>
     db0:	fd842783          	lw	a5,-40(s0)
     db4:	0047e793          	ori	a5,a5,4
     db8:	fcf42c23          	sw	a5,-40(s0)
     dbc:	fadff06f          	j	d68 <ee_vsprintf+0x58>
     dc0:	fd842783          	lw	a5,-40(s0)
     dc4:	0087e793          	ori	a5,a5,8
     dc8:	fcf42c23          	sw	a5,-40(s0)
     dcc:	f9dff06f          	j	d68 <ee_vsprintf+0x58>
     dd0:	fd842783          	lw	a5,-40(s0)
     dd4:	0207e793          	ori	a5,a5,32
     dd8:	fcf42c23          	sw	a5,-40(s0)
     ddc:	f8dff06f          	j	d68 <ee_vsprintf+0x58>
     de0:	fd842783          	lw	a5,-40(s0)
     de4:	0017e793          	ori	a5,a5,1
     de8:	fcf42c23          	sw	a5,-40(s0)
     dec:	f7dff06f          	j	d68 <ee_vsprintf+0x58>
     df0:	fff00793          	li	a5,-1
     df4:	fcf42a23          	sw	a5,-44(s0)
     df8:	fb842783          	lw	a5,-72(s0)
     dfc:	0007c703          	lbu	a4,0(a5)
     e00:	02f00793          	li	a5,47
     e04:	02e7f463          	bgeu	a5,a4,e2c <ee_vsprintf+0x11c>
     e08:	fb842783          	lw	a5,-72(s0)
     e0c:	0007c703          	lbu	a4,0(a5)
     e10:	03900793          	li	a5,57
     e14:	00e7ec63          	bltu	a5,a4,e2c <ee_vsprintf+0x11c>
     e18:	fb840793          	addi	a5,s0,-72
     e1c:	00078513          	mv	a0,a5
     e20:	e48ff0ef          	jal	ra,468 <skip_atoi>
     e24:	fca42a23          	sw	a0,-44(s0)
     e28:	0540006f          	j	e7c <ee_vsprintf+0x16c>
     e2c:	fb842783          	lw	a5,-72(s0)
     e30:	0007c703          	lbu	a4,0(a5)
     e34:	02a00793          	li	a5,42
     e38:	04f71263          	bne	a4,a5,e7c <ee_vsprintf+0x16c>
     e3c:	fb842783          	lw	a5,-72(s0)
     e40:	00178793          	addi	a5,a5,1
     e44:	faf42c23          	sw	a5,-72(s0)
     e48:	fb442783          	lw	a5,-76(s0)
     e4c:	00478713          	addi	a4,a5,4
     e50:	fae42a23          	sw	a4,-76(s0)
     e54:	0007a783          	lw	a5,0(a5)
     e58:	fcf42a23          	sw	a5,-44(s0)
     e5c:	fd442783          	lw	a5,-44(s0)
     e60:	0007de63          	bgez	a5,e7c <ee_vsprintf+0x16c>
     e64:	fd442783          	lw	a5,-44(s0)
     e68:	40f007b3          	neg	a5,a5
     e6c:	fcf42a23          	sw	a5,-44(s0)
     e70:	fd842783          	lw	a5,-40(s0)
     e74:	0107e793          	ori	a5,a5,16
     e78:	fcf42c23          	sw	a5,-40(s0)
     e7c:	fff00793          	li	a5,-1
     e80:	fcf42823          	sw	a5,-48(s0)
     e84:	fb842783          	lw	a5,-72(s0)
     e88:	0007c703          	lbu	a4,0(a5)
     e8c:	02e00793          	li	a5,46
     e90:	08f71063          	bne	a4,a5,f10 <ee_vsprintf+0x200>
     e94:	fb842783          	lw	a5,-72(s0)
     e98:	00178793          	addi	a5,a5,1
     e9c:	faf42c23          	sw	a5,-72(s0)
     ea0:	fb842783          	lw	a5,-72(s0)
     ea4:	0007c703          	lbu	a4,0(a5)
     ea8:	02f00793          	li	a5,47
     eac:	02e7f463          	bgeu	a5,a4,ed4 <ee_vsprintf+0x1c4>
     eb0:	fb842783          	lw	a5,-72(s0)
     eb4:	0007c703          	lbu	a4,0(a5)
     eb8:	03900793          	li	a5,57
     ebc:	00e7ec63          	bltu	a5,a4,ed4 <ee_vsprintf+0x1c4>
     ec0:	fb840793          	addi	a5,s0,-72
     ec4:	00078513          	mv	a0,a5
     ec8:	da0ff0ef          	jal	ra,468 <skip_atoi>
     ecc:	fca42823          	sw	a0,-48(s0)
     ed0:	0340006f          	j	f04 <ee_vsprintf+0x1f4>
     ed4:	fb842783          	lw	a5,-72(s0)
     ed8:	0007c703          	lbu	a4,0(a5)
     edc:	02a00793          	li	a5,42
     ee0:	02f71263          	bne	a4,a5,f04 <ee_vsprintf+0x1f4>
     ee4:	fb842783          	lw	a5,-72(s0)
     ee8:	00178793          	addi	a5,a5,1
     eec:	faf42c23          	sw	a5,-72(s0)
     ef0:	fb442783          	lw	a5,-76(s0)
     ef4:	00478713          	addi	a4,a5,4
     ef8:	fae42a23          	sw	a4,-76(s0)
     efc:	0007a783          	lw	a5,0(a5)
     f00:	fcf42823          	sw	a5,-48(s0)
     f04:	fd042783          	lw	a5,-48(s0)
     f08:	0007d463          	bgez	a5,f10 <ee_vsprintf+0x200>
     f0c:	fc042823          	sw	zero,-48(s0)
     f10:	fff00793          	li	a5,-1
     f14:	fcf42623          	sw	a5,-52(s0)
     f18:	fb842783          	lw	a5,-72(s0)
     f1c:	0007c703          	lbu	a4,0(a5)
     f20:	06c00793          	li	a5,108
     f24:	00f70a63          	beq	a4,a5,f38 <ee_vsprintf+0x228>
     f28:	fb842783          	lw	a5,-72(s0)
     f2c:	0007c703          	lbu	a4,0(a5)
     f30:	04c00793          	li	a5,76
     f34:	00f71e63          	bne	a4,a5,f50 <ee_vsprintf+0x240>
     f38:	fb842783          	lw	a5,-72(s0)
     f3c:	0007c783          	lbu	a5,0(a5)
     f40:	fcf42623          	sw	a5,-52(s0)
     f44:	fb842783          	lw	a5,-72(s0)
     f48:	00178793          	addi	a5,a5,1
     f4c:	faf42c23          	sw	a5,-72(s0)
     f50:	00a00793          	li	a5,10
     f54:	fef42223          	sw	a5,-28(s0)
     f58:	fb842783          	lw	a5,-72(s0)
     f5c:	0007c783          	lbu	a5,0(a5)
     f60:	fbf78793          	addi	a5,a5,-65
     f64:	03700713          	li	a4,55
     f68:	28f76863          	bltu	a4,a5,11f8 <ee_vsprintf+0x4e8>
     f6c:	00279713          	slli	a4,a5,0x2
     f70:	400007b7          	lui	a5,0x40000
     f74:	19878793          	addi	a5,a5,408 # 40000198 <upper_digits+0x184>
     f78:	00f707b3          	add	a5,a4,a5
     f7c:	0007a783          	lw	a5,0(a5)
     f80:	00078067          	jr	a5
     f84:	fd842783          	lw	a5,-40(s0)
     f88:	0107f793          	andi	a5,a5,16
     f8c:	02079863          	bnez	a5,fbc <ee_vsprintf+0x2ac>
     f90:	0180006f          	j	fa8 <ee_vsprintf+0x298>
     f94:	fe042783          	lw	a5,-32(s0)
     f98:	00178713          	addi	a4,a5,1
     f9c:	fee42023          	sw	a4,-32(s0)
     fa0:	02000713          	li	a4,32
     fa4:	00e78023          	sb	a4,0(a5)
     fa8:	fd442783          	lw	a5,-44(s0)
     fac:	fff78793          	addi	a5,a5,-1
     fb0:	fcf42a23          	sw	a5,-44(s0)
     fb4:	fd442783          	lw	a5,-44(s0)
     fb8:	fcf04ee3          	bgtz	a5,f94 <ee_vsprintf+0x284>
     fbc:	fb442783          	lw	a5,-76(s0)
     fc0:	00478713          	addi	a4,a5,4
     fc4:	fae42a23          	sw	a4,-76(s0)
     fc8:	0007a683          	lw	a3,0(a5)
     fcc:	fe042783          	lw	a5,-32(s0)
     fd0:	00178713          	addi	a4,a5,1
     fd4:	fee42023          	sw	a4,-32(s0)
     fd8:	0ff6f713          	andi	a4,a3,255
     fdc:	00e78023          	sb	a4,0(a5)
     fe0:	0180006f          	j	ff8 <ee_vsprintf+0x2e8>
     fe4:	fe042783          	lw	a5,-32(s0)
     fe8:	00178713          	addi	a4,a5,1
     fec:	fee42023          	sw	a4,-32(s0)
     ff0:	02000713          	li	a4,32
     ff4:	00e78023          	sb	a4,0(a5)
     ff8:	fd442783          	lw	a5,-44(s0)
     ffc:	fff78793          	addi	a5,a5,-1
    1000:	fcf42a23          	sw	a5,-44(s0)
    1004:	fd442783          	lw	a5,-44(s0)
    1008:	fcf04ee3          	bgtz	a5,fe4 <ee_vsprintf+0x2d4>
    100c:	2c80006f          	j	12d4 <ee_vsprintf+0x5c4>
    1010:	fb442783          	lw	a5,-76(s0)
    1014:	00478713          	addi	a4,a5,4
    1018:	fae42a23          	sw	a4,-76(s0)
    101c:	0007a783          	lw	a5,0(a5)
    1020:	fcf42e23          	sw	a5,-36(s0)
    1024:	fdc42783          	lw	a5,-36(s0)
    1028:	00079863          	bnez	a5,1038 <ee_vsprintf+0x328>
    102c:	400007b7          	lui	a5,0x40000
    1030:	14c78793          	addi	a5,a5,332 # 4000014c <upper_digits+0x138>
    1034:	fcf42e23          	sw	a5,-36(s0)
    1038:	fd042783          	lw	a5,-48(s0)
    103c:	00078593          	mv	a1,a5
    1040:	fdc42503          	lw	a0,-36(s0)
    1044:	bc0ff0ef          	jal	ra,404 <strnlen>
    1048:	00050793          	mv	a5,a0
    104c:	fcf42423          	sw	a5,-56(s0)
    1050:	fd842783          	lw	a5,-40(s0)
    1054:	0107f793          	andi	a5,a5,16
    1058:	02079863          	bnez	a5,1088 <ee_vsprintf+0x378>
    105c:	0180006f          	j	1074 <ee_vsprintf+0x364>
    1060:	fe042783          	lw	a5,-32(s0)
    1064:	00178713          	addi	a4,a5,1
    1068:	fee42023          	sw	a4,-32(s0)
    106c:	02000713          	li	a4,32
    1070:	00e78023          	sb	a4,0(a5)
    1074:	fd442783          	lw	a5,-44(s0)
    1078:	fff78713          	addi	a4,a5,-1
    107c:	fce42a23          	sw	a4,-44(s0)
    1080:	fc842703          	lw	a4,-56(s0)
    1084:	fcf74ee3          	blt	a4,a5,1060 <ee_vsprintf+0x350>
    1088:	fe042423          	sw	zero,-24(s0)
    108c:	0300006f          	j	10bc <ee_vsprintf+0x3ac>
    1090:	fdc42703          	lw	a4,-36(s0)
    1094:	00170793          	addi	a5,a4,1
    1098:	fcf42e23          	sw	a5,-36(s0)
    109c:	fe042783          	lw	a5,-32(s0)
    10a0:	00178693          	addi	a3,a5,1
    10a4:	fed42023          	sw	a3,-32(s0)
    10a8:	00074703          	lbu	a4,0(a4)
    10ac:	00e78023          	sb	a4,0(a5)
    10b0:	fe842783          	lw	a5,-24(s0)
    10b4:	00178793          	addi	a5,a5,1
    10b8:	fef42423          	sw	a5,-24(s0)
    10bc:	fe842703          	lw	a4,-24(s0)
    10c0:	fc842783          	lw	a5,-56(s0)
    10c4:	fcf746e3          	blt	a4,a5,1090 <ee_vsprintf+0x380>
    10c8:	0180006f          	j	10e0 <ee_vsprintf+0x3d0>
    10cc:	fe042783          	lw	a5,-32(s0)
    10d0:	00178713          	addi	a4,a5,1
    10d4:	fee42023          	sw	a4,-32(s0)
    10d8:	02000713          	li	a4,32
    10dc:	00e78023          	sb	a4,0(a5)
    10e0:	fd442783          	lw	a5,-44(s0)
    10e4:	fff78713          	addi	a4,a5,-1
    10e8:	fce42a23          	sw	a4,-44(s0)
    10ec:	fc842703          	lw	a4,-56(s0)
    10f0:	fcf74ee3          	blt	a4,a5,10cc <ee_vsprintf+0x3bc>
    10f4:	1e00006f          	j	12d4 <ee_vsprintf+0x5c4>
    10f8:	fd442703          	lw	a4,-44(s0)
    10fc:	fff00793          	li	a5,-1
    1100:	00f71c63          	bne	a4,a5,1118 <ee_vsprintf+0x408>
    1104:	00800793          	li	a5,8
    1108:	fcf42a23          	sw	a5,-44(s0)
    110c:	fd842783          	lw	a5,-40(s0)
    1110:	0017e793          	ori	a5,a5,1
    1114:	fcf42c23          	sw	a5,-40(s0)
    1118:	fb442783          	lw	a5,-76(s0)
    111c:	00478713          	addi	a4,a5,4
    1120:	fae42a23          	sw	a4,-76(s0)
    1124:	0007a783          	lw	a5,0(a5)
    1128:	00078593          	mv	a1,a5
    112c:	fd842783          	lw	a5,-40(s0)
    1130:	fd042703          	lw	a4,-48(s0)
    1134:	fd442683          	lw	a3,-44(s0)
    1138:	01000613          	li	a2,16
    113c:	fe042503          	lw	a0,-32(s0)
    1140:	bb8ff0ef          	jal	ra,4f8 <number>
    1144:	fea42023          	sw	a0,-32(s0)
    1148:	18c0006f          	j	12d4 <ee_vsprintf+0x5c4>
    114c:	fd842783          	lw	a5,-40(s0)
    1150:	0407e793          	ori	a5,a5,64
    1154:	fcf42c23          	sw	a5,-40(s0)
    1158:	fcc42703          	lw	a4,-52(s0)
    115c:	06c00793          	li	a5,108
    1160:	02f71a63          	bne	a4,a5,1194 <ee_vsprintf+0x484>
    1164:	fb442783          	lw	a5,-76(s0)
    1168:	00478713          	addi	a4,a5,4
    116c:	fae42a23          	sw	a4,-76(s0)
    1170:	0007a783          	lw	a5,0(a5)
    1174:	fd842703          	lw	a4,-40(s0)
    1178:	fd042683          	lw	a3,-48(s0)
    117c:	fd442603          	lw	a2,-44(s0)
    1180:	00078593          	mv	a1,a5
    1184:	fe042503          	lw	a0,-32(s0)
    1188:	f14ff0ef          	jal	ra,89c <eaddr>
    118c:	fea42023          	sw	a0,-32(s0)
    1190:	1440006f          	j	12d4 <ee_vsprintf+0x5c4>
    1194:	fb442783          	lw	a5,-76(s0)
    1198:	00478713          	addi	a4,a5,4
    119c:	fae42a23          	sw	a4,-76(s0)
    11a0:	0007a783          	lw	a5,0(a5)
    11a4:	fd842703          	lw	a4,-40(s0)
    11a8:	fd042683          	lw	a3,-48(s0)
    11ac:	fd442603          	lw	a2,-44(s0)
    11b0:	00078593          	mv	a1,a5
    11b4:	fe042503          	lw	a0,-32(s0)
    11b8:	8a1ff0ef          	jal	ra,a58 <iaddr>
    11bc:	fea42023          	sw	a0,-32(s0)
    11c0:	1140006f          	j	12d4 <ee_vsprintf+0x5c4>
    11c4:	00800793          	li	a5,8
    11c8:	fef42223          	sw	a5,-28(s0)
    11cc:	08c0006f          	j	1258 <ee_vsprintf+0x548>
    11d0:	fd842783          	lw	a5,-40(s0)
    11d4:	0407e793          	ori	a5,a5,64
    11d8:	fcf42c23          	sw	a5,-40(s0)
    11dc:	01000793          	li	a5,16
    11e0:	fef42223          	sw	a5,-28(s0)
    11e4:	0740006f          	j	1258 <ee_vsprintf+0x548>
    11e8:	fd842783          	lw	a5,-40(s0)
    11ec:	0027e793          	ori	a5,a5,2
    11f0:	fcf42c23          	sw	a5,-40(s0)
    11f4:	0600006f          	j	1254 <ee_vsprintf+0x544>
    11f8:	fb842783          	lw	a5,-72(s0)
    11fc:	0007c703          	lbu	a4,0(a5)
    1200:	02500793          	li	a5,37
    1204:	00f70c63          	beq	a4,a5,121c <ee_vsprintf+0x50c>
    1208:	fe042783          	lw	a5,-32(s0)
    120c:	00178713          	addi	a4,a5,1
    1210:	fee42023          	sw	a4,-32(s0)
    1214:	02500713          	li	a4,37
    1218:	00e78023          	sb	a4,0(a5)
    121c:	fb842783          	lw	a5,-72(s0)
    1220:	0007c783          	lbu	a5,0(a5)
    1224:	02078063          	beqz	a5,1244 <ee_vsprintf+0x534>
    1228:	fb842703          	lw	a4,-72(s0)
    122c:	fe042783          	lw	a5,-32(s0)
    1230:	00178693          	addi	a3,a5,1
    1234:	fed42023          	sw	a3,-32(s0)
    1238:	00074703          	lbu	a4,0(a4)
    123c:	00e78023          	sb	a4,0(a5)
    1240:	0940006f          	j	12d4 <ee_vsprintf+0x5c4>
    1244:	fb842783          	lw	a5,-72(s0)
    1248:	fff78793          	addi	a5,a5,-1
    124c:	faf42c23          	sw	a5,-72(s0)
    1250:	0840006f          	j	12d4 <ee_vsprintf+0x5c4>
    1254:	00000013          	nop
    1258:	fcc42703          	lw	a4,-52(s0)
    125c:	06c00793          	li	a5,108
    1260:	00f71e63          	bne	a4,a5,127c <ee_vsprintf+0x56c>
    1264:	fb442783          	lw	a5,-76(s0)
    1268:	00478713          	addi	a4,a5,4
    126c:	fae42a23          	sw	a4,-76(s0)
    1270:	0007a783          	lw	a5,0(a5)
    1274:	fef42623          	sw	a5,-20(s0)
    1278:	03c0006f          	j	12b4 <ee_vsprintf+0x5a4>
    127c:	fd842783          	lw	a5,-40(s0)
    1280:	0027f793          	andi	a5,a5,2
    1284:	00078e63          	beqz	a5,12a0 <ee_vsprintf+0x590>
    1288:	fb442783          	lw	a5,-76(s0)
    128c:	00478713          	addi	a4,a5,4
    1290:	fae42a23          	sw	a4,-76(s0)
    1294:	0007a783          	lw	a5,0(a5)
    1298:	fef42623          	sw	a5,-20(s0)
    129c:	0180006f          	j	12b4 <ee_vsprintf+0x5a4>
    12a0:	fb442783          	lw	a5,-76(s0)
    12a4:	00478713          	addi	a4,a5,4
    12a8:	fae42a23          	sw	a4,-76(s0)
    12ac:	0007a783          	lw	a5,0(a5)
    12b0:	fef42623          	sw	a5,-20(s0)
    12b4:	fec42583          	lw	a1,-20(s0)
    12b8:	fd842783          	lw	a5,-40(s0)
    12bc:	fd042703          	lw	a4,-48(s0)
    12c0:	fd442683          	lw	a3,-44(s0)
    12c4:	fe442603          	lw	a2,-28(s0)
    12c8:	fe042503          	lw	a0,-32(s0)
    12cc:	a2cff0ef          	jal	ra,4f8 <number>
    12d0:	fea42023          	sw	a0,-32(s0)
    12d4:	fb842783          	lw	a5,-72(s0)
    12d8:	00178793          	addi	a5,a5,1
    12dc:	faf42c23          	sw	a5,-72(s0)
    12e0:	fb842783          	lw	a5,-72(s0)
    12e4:	0007c783          	lbu	a5,0(a5)
    12e8:	a40798e3          	bnez	a5,d38 <ee_vsprintf+0x28>
    12ec:	fe042783          	lw	a5,-32(s0)
    12f0:	00078023          	sb	zero,0(a5)
    12f4:	fe042703          	lw	a4,-32(s0)
    12f8:	fbc42783          	lw	a5,-68(s0)
    12fc:	40f707b3          	sub	a5,a4,a5
    1300:	00078513          	mv	a0,a5
    1304:	04c12083          	lw	ra,76(sp)
    1308:	04812403          	lw	s0,72(sp)
    130c:	05010113          	addi	sp,sp,80
    1310:	00008067          	ret

00001314 <uart_send_char>:
    1314:	fd010113          	addi	sp,sp,-48
    1318:	02812623          	sw	s0,44(sp)
    131c:	03010413          	addi	s0,sp,48
    1320:	00050793          	mv	a5,a0
    1324:	fcf40fa3          	sb	a5,-33(s0)
    1328:	800007b7          	lui	a5,0x80000
    132c:	10078793          	addi	a5,a5,256 # 80000100 <_end+0x3ffffd40>
    1330:	fef42623          	sw	a5,-20(s0)
    1334:	800007b7          	lui	a5,0x80000
    1338:	10478793          	addi	a5,a5,260 # 80000104 <_end+0x3ffffd44>
    133c:	fef42423          	sw	a5,-24(s0)
    1340:	00000013          	nop
    1344:	fec42783          	lw	a5,-20(s0)
    1348:	0007a703          	lw	a4,0(a5)
    134c:	00100793          	li	a5,1
    1350:	fef71ae3          	bne	a4,a5,1344 <uart_send_char+0x30>
    1354:	fdf44703          	lbu	a4,-33(s0)
    1358:	fe842783          	lw	a5,-24(s0)
    135c:	00e7a023          	sw	a4,0(a5)
    1360:	00000013          	nop
    1364:	02c12403          	lw	s0,44(sp)
    1368:	03010113          	addi	sp,sp,48
    136c:	00008067          	ret

00001370 <ee_printf>:
    1370:	eb010113          	addi	sp,sp,-336
    1374:	12112623          	sw	ra,300(sp)
    1378:	12812423          	sw	s0,296(sp)
    137c:	13010413          	addi	s0,sp,304
    1380:	eca42e23          	sw	a0,-292(s0)
    1384:	00b42223          	sw	a1,4(s0)
    1388:	00c42423          	sw	a2,8(s0)
    138c:	00d42623          	sw	a3,12(s0)
    1390:	00e42823          	sw	a4,16(s0)
    1394:	00f42a23          	sw	a5,20(s0)
    1398:	01042c23          	sw	a6,24(s0)
    139c:	01142e23          	sw	a7,28(s0)
    13a0:	fe042423          	sw	zero,-24(s0)
    13a4:	02040793          	addi	a5,s0,32
    13a8:	ecf42c23          	sw	a5,-296(s0)
    13ac:	ed842783          	lw	a5,-296(s0)
    13b0:	fe478793          	addi	a5,a5,-28
    13b4:	eef42223          	sw	a5,-284(s0)
    13b8:	ee442703          	lw	a4,-284(s0)
    13bc:	ee840793          	addi	a5,s0,-280
    13c0:	00070613          	mv	a2,a4
    13c4:	edc42583          	lw	a1,-292(s0)
    13c8:	00078513          	mv	a0,a5
    13cc:	945ff0ef          	jal	ra,d10 <ee_vsprintf>
    13d0:	ee840793          	addi	a5,s0,-280
    13d4:	fef42623          	sw	a5,-20(s0)
    13d8:	02c0006f          	j	1404 <ee_printf+0x94>
    13dc:	fec42783          	lw	a5,-20(s0)
    13e0:	0007c783          	lbu	a5,0(a5)
    13e4:	00078513          	mv	a0,a5
    13e8:	f2dff0ef          	jal	ra,1314 <uart_send_char>
    13ec:	fe842783          	lw	a5,-24(s0)
    13f0:	00178793          	addi	a5,a5,1
    13f4:	fef42423          	sw	a5,-24(s0)
    13f8:	fec42783          	lw	a5,-20(s0)
    13fc:	00178793          	addi	a5,a5,1
    1400:	fef42623          	sw	a5,-20(s0)
    1404:	fec42783          	lw	a5,-20(s0)
    1408:	0007c783          	lbu	a5,0(a5)
    140c:	fc0798e3          	bnez	a5,13dc <ee_printf+0x6c>
    1410:	fe842783          	lw	a5,-24(s0)
    1414:	00078513          	mv	a0,a5
    1418:	12c12083          	lw	ra,300(sp)
    141c:	12812403          	lw	s0,296(sp)
    1420:	15010113          	addi	sp,sp,336
    1424:	00008067          	ret

00001428 <match_cmd>:
    1428:	fd010113          	addi	sp,sp,-48
    142c:	02112623          	sw	ra,44(sp)
    1430:	02812423          	sw	s0,40(sp)
    1434:	03010413          	addi	s0,sp,48
    1438:	fca42e23          	sw	a0,-36(s0)
    143c:	fdc42503          	lw	a0,-36(s0)
    1440:	4b4000ef          	jal	ra,18f4 <strlen>
    1444:	00050713          	mv	a4,a0
    1448:	01400793          	li	a5,20
    144c:	08e7e663          	bltu	a5,a4,14d8 <match_cmd+0xb0>
    1450:	fe042623          	sw	zero,-20(s0)
    1454:	06c0006f          	j	14c0 <match_cmd+0x98>
    1458:	fec42703          	lw	a4,-20(s0)
    145c:	00070793          	mv	a5,a4
    1460:	00379793          	slli	a5,a5,0x3
    1464:	40e787b3          	sub	a5,a5,a4
    1468:	00279793          	slli	a5,a5,0x2
    146c:	40000737          	lui	a4,0x40000
    1470:	29470713          	addi	a4,a4,660 # 40000294 <commands>
    1474:	00e787b3          	add	a5,a5,a4
    1478:	fdc42583          	lw	a1,-36(s0)
    147c:	00078513          	mv	a0,a5
    1480:	248000ef          	jal	ra,16c8 <strcmp>
    1484:	00050793          	mv	a5,a0
    1488:	02079663          	bnez	a5,14b4 <match_cmd+0x8c>
    148c:	400007b7          	lui	a5,0x40000
    1490:	29478693          	addi	a3,a5,660 # 40000294 <commands>
    1494:	fec42703          	lw	a4,-20(s0)
    1498:	00070793          	mv	a5,a4
    149c:	00379793          	slli	a5,a5,0x3
    14a0:	40e787b3          	sub	a5,a5,a4
    14a4:	00279793          	slli	a5,a5,0x2
    14a8:	00f687b3          	add	a5,a3,a5
    14ac:	0187a783          	lw	a5,24(a5)
    14b0:	000780e7          	jalr	a5
    14b4:	fec42783          	lw	a5,-20(s0)
    14b8:	00178793          	addi	a5,a5,1
    14bc:	fef42623          	sw	a5,-20(s0)
    14c0:	400007b7          	lui	a5,0x40000
    14c4:	29478793          	addi	a5,a5,660 # 40000294 <commands>
    14c8:	1187a783          	lw	a5,280(a5)
    14cc:	fec42703          	lw	a4,-20(s0)
    14d0:	f8f744e3          	blt	a4,a5,1458 <match_cmd+0x30>
    14d4:	0080006f          	j	14dc <match_cmd+0xb4>
    14d8:	00000013          	nop
    14dc:	02c12083          	lw	ra,44(sp)
    14e0:	02812403          	lw	s0,40(sp)
    14e4:	03010113          	addi	sp,sp,48
    14e8:	00008067          	ret

000014ec <register_cmds>:
    14ec:	fd010113          	addi	sp,sp,-48
    14f0:	02112623          	sw	ra,44(sp)
    14f4:	02812423          	sw	s0,40(sp)
    14f8:	03010413          	addi	s0,sp,48
    14fc:	fca42e23          	sw	a0,-36(s0)
    1500:	fcb42c23          	sw	a1,-40(s0)
    1504:	fd842703          	lw	a4,-40(s0)
    1508:	00a00793          	li	a5,10
    150c:	0ee7ce63          	blt	a5,a4,1608 <register_cmds+0x11c>
    1510:	fe042623          	sw	zero,-20(s0)
    1514:	0e40006f          	j	15f8 <register_cmds+0x10c>
    1518:	400007b7          	lui	a5,0x40000
    151c:	29478793          	addi	a5,a5,660 # 40000294 <commands>
    1520:	1187a703          	lw	a4,280(a5)
    1524:	00900793          	li	a5,9
    1528:	0ce7c263          	blt	a5,a4,15ec <register_cmds+0x100>
    152c:	400007b7          	lui	a5,0x40000
    1530:	29478793          	addi	a5,a5,660 # 40000294 <commands>
    1534:	1187a703          	lw	a4,280(a5)
    1538:	00070793          	mv	a5,a4
    153c:	00379793          	slli	a5,a5,0x3
    1540:	40e787b3          	sub	a5,a5,a4
    1544:	00279793          	slli	a5,a5,0x2
    1548:	40000737          	lui	a4,0x40000
    154c:	29470713          	addi	a4,a4,660 # 40000294 <commands>
    1550:	00e786b3          	add	a3,a5,a4
    1554:	fec42703          	lw	a4,-20(s0)
    1558:	00070793          	mv	a5,a4
    155c:	00379793          	slli	a5,a5,0x3
    1560:	40e787b3          	sub	a5,a5,a4
    1564:	00279793          	slli	a5,a5,0x2
    1568:	00078713          	mv	a4,a5
    156c:	fdc42783          	lw	a5,-36(s0)
    1570:	00e787b3          	add	a5,a5,a4
    1574:	00078593          	mv	a1,a5
    1578:	00068513          	mv	a0,a3
    157c:	2c8000ef          	jal	ra,1844 <strcpy>
    1580:	fec42703          	lw	a4,-20(s0)
    1584:	00070793          	mv	a5,a4
    1588:	00379793          	slli	a5,a5,0x3
    158c:	40e787b3          	sub	a5,a5,a4
    1590:	00279793          	slli	a5,a5,0x2
    1594:	00078713          	mv	a4,a5
    1598:	fdc42783          	lw	a5,-36(s0)
    159c:	00e787b3          	add	a5,a5,a4
    15a0:	40000737          	lui	a4,0x40000
    15a4:	29470713          	addi	a4,a4,660 # 40000294 <commands>
    15a8:	11872703          	lw	a4,280(a4)
    15ac:	0187a683          	lw	a3,24(a5)
    15b0:	400007b7          	lui	a5,0x40000
    15b4:	29478613          	addi	a2,a5,660 # 40000294 <commands>
    15b8:	00070793          	mv	a5,a4
    15bc:	00379793          	slli	a5,a5,0x3
    15c0:	40e787b3          	sub	a5,a5,a4
    15c4:	00279793          	slli	a5,a5,0x2
    15c8:	00f607b3          	add	a5,a2,a5
    15cc:	00d7ac23          	sw	a3,24(a5)
    15d0:	400007b7          	lui	a5,0x40000
    15d4:	29478793          	addi	a5,a5,660 # 40000294 <commands>
    15d8:	1187a783          	lw	a5,280(a5)
    15dc:	00178713          	addi	a4,a5,1
    15e0:	400007b7          	lui	a5,0x40000
    15e4:	29478793          	addi	a5,a5,660 # 40000294 <commands>
    15e8:	10e7ac23          	sw	a4,280(a5)
    15ec:	fec42783          	lw	a5,-20(s0)
    15f0:	00178793          	addi	a5,a5,1
    15f4:	fef42623          	sw	a5,-20(s0)
    15f8:	fec42703          	lw	a4,-20(s0)
    15fc:	fd842783          	lw	a5,-40(s0)
    1600:	f0f74ce3          	blt	a4,a5,1518 <register_cmds+0x2c>
    1604:	0080006f          	j	160c <register_cmds+0x120>
    1608:	00000013          	nop
    160c:	02c12083          	lw	ra,44(sp)
    1610:	02812403          	lw	s0,40(sp)
    1614:	03010113          	addi	sp,sp,48
    1618:	00008067          	ret

0000161c <led_test>:
    161c:	fe010113          	addi	sp,sp,-32
    1620:	00812e23          	sw	s0,28(sp)
    1624:	02010413          	addi	s0,sp,32
    1628:	800007b7          	lui	a5,0x80000
    162c:	13078793          	addi	a5,a5,304 # 80000130 <_end+0x3ffffd70>
    1630:	fef42623          	sw	a5,-20(s0)
    1634:	fec42783          	lw	a5,-20(s0)
    1638:	aaaab737          	lui	a4,0xaaaab
    163c:	aaa70713          	addi	a4,a4,-1366 # aaaaaaaa <_end+0x6aaaa6ea>
    1640:	00e7a023          	sw	a4,0(a5)
    1644:	00000013          	nop
    1648:	01c12403          	lw	s0,28(sp)
    164c:	02010113          	addi	sp,sp,32
    1650:	00008067          	ret

00001654 <led_init>:
    1654:	fd010113          	addi	sp,sp,-48
    1658:	02112623          	sw	ra,44(sp)
    165c:	02812423          	sw	s0,40(sp)
    1660:	03010413          	addi	s0,sp,48
    1664:	400007b7          	lui	a5,0x40000
    1668:	27878793          	addi	a5,a5,632 # 40000278 <upper_digits+0x264>
    166c:	0007a803          	lw	a6,0(a5)
    1670:	0047a503          	lw	a0,4(a5)
    1674:	0087a583          	lw	a1,8(a5)
    1678:	00c7a603          	lw	a2,12(a5)
    167c:	0107a683          	lw	a3,16(a5)
    1680:	0147a703          	lw	a4,20(a5)
    1684:	0187a783          	lw	a5,24(a5)
    1688:	fd042a23          	sw	a6,-44(s0)
    168c:	fca42c23          	sw	a0,-40(s0)
    1690:	fcb42e23          	sw	a1,-36(s0)
    1694:	fec42023          	sw	a2,-32(s0)
    1698:	fed42223          	sw	a3,-28(s0)
    169c:	fee42423          	sw	a4,-24(s0)
    16a0:	fef42623          	sw	a5,-20(s0)
    16a4:	fd440793          	addi	a5,s0,-44
    16a8:	00100593          	li	a1,1
    16ac:	00078513          	mv	a0,a5
    16b0:	e3dff0ef          	jal	ra,14ec <register_cmds>
    16b4:	00000013          	nop
    16b8:	02c12083          	lw	ra,44(sp)
    16bc:	02812403          	lw	s0,40(sp)
    16c0:	03010113          	addi	sp,sp,48
    16c4:	00008067          	ret

000016c8 <strcmp>:
    16c8:	00b56733          	or	a4,a0,a1
    16cc:	fff00393          	li	t2,-1
    16d0:	00377713          	andi	a4,a4,3
    16d4:	10071063          	bnez	a4,17d4 <strcmp+0x10c>
    16d8:	7f7f87b7          	lui	a5,0x7f7f8
    16dc:	f7f78793          	addi	a5,a5,-129 # 7f7f7f7f <_end+0x3f7f7bbf>
    16e0:	00052603          	lw	a2,0(a0)
    16e4:	0005a683          	lw	a3,0(a1)
    16e8:	00f672b3          	and	t0,a2,a5
    16ec:	00f66333          	or	t1,a2,a5
    16f0:	00f282b3          	add	t0,t0,a5
    16f4:	0062e2b3          	or	t0,t0,t1
    16f8:	10729263          	bne	t0,t2,17fc <strcmp+0x134>
    16fc:	08d61663          	bne	a2,a3,1788 <strcmp+0xc0>
    1700:	00452603          	lw	a2,4(a0)
    1704:	0045a683          	lw	a3,4(a1)
    1708:	00f672b3          	and	t0,a2,a5
    170c:	00f66333          	or	t1,a2,a5
    1710:	00f282b3          	add	t0,t0,a5
    1714:	0062e2b3          	or	t0,t0,t1
    1718:	0c729e63          	bne	t0,t2,17f4 <strcmp+0x12c>
    171c:	06d61663          	bne	a2,a3,1788 <strcmp+0xc0>
    1720:	00852603          	lw	a2,8(a0)
    1724:	0085a683          	lw	a3,8(a1)
    1728:	00f672b3          	and	t0,a2,a5
    172c:	00f66333          	or	t1,a2,a5
    1730:	00f282b3          	add	t0,t0,a5
    1734:	0062e2b3          	or	t0,t0,t1
    1738:	0c729863          	bne	t0,t2,1808 <strcmp+0x140>
    173c:	04d61663          	bne	a2,a3,1788 <strcmp+0xc0>
    1740:	00c52603          	lw	a2,12(a0)
    1744:	00c5a683          	lw	a3,12(a1)
    1748:	00f672b3          	and	t0,a2,a5
    174c:	00f66333          	or	t1,a2,a5
    1750:	00f282b3          	add	t0,t0,a5
    1754:	0062e2b3          	or	t0,t0,t1
    1758:	0c729263          	bne	t0,t2,181c <strcmp+0x154>
    175c:	02d61663          	bne	a2,a3,1788 <strcmp+0xc0>
    1760:	01052603          	lw	a2,16(a0)
    1764:	0105a683          	lw	a3,16(a1)
    1768:	00f672b3          	and	t0,a2,a5
    176c:	00f66333          	or	t1,a2,a5
    1770:	00f282b3          	add	t0,t0,a5
    1774:	0062e2b3          	or	t0,t0,t1
    1778:	0a729c63          	bne	t0,t2,1830 <strcmp+0x168>
    177c:	01450513          	addi	a0,a0,20
    1780:	01458593          	addi	a1,a1,20
    1784:	f4d60ee3          	beq	a2,a3,16e0 <strcmp+0x18>
    1788:	01061713          	slli	a4,a2,0x10
    178c:	01069793          	slli	a5,a3,0x10
    1790:	00f71e63          	bne	a4,a5,17ac <strcmp+0xe4>
    1794:	01065713          	srli	a4,a2,0x10
    1798:	0106d793          	srli	a5,a3,0x10
    179c:	40f70533          	sub	a0,a4,a5
    17a0:	0ff57593          	andi	a1,a0,255
    17a4:	02059063          	bnez	a1,17c4 <strcmp+0xfc>
    17a8:	00008067          	ret
    17ac:	01075713          	srli	a4,a4,0x10
    17b0:	0107d793          	srli	a5,a5,0x10
    17b4:	40f70533          	sub	a0,a4,a5
    17b8:	0ff57593          	andi	a1,a0,255
    17bc:	00059463          	bnez	a1,17c4 <strcmp+0xfc>
    17c0:	00008067          	ret
    17c4:	0ff77713          	andi	a4,a4,255
    17c8:	0ff7f793          	andi	a5,a5,255
    17cc:	40f70533          	sub	a0,a4,a5
    17d0:	00008067          	ret
    17d4:	00054603          	lbu	a2,0(a0)
    17d8:	0005c683          	lbu	a3,0(a1)
    17dc:	00150513          	addi	a0,a0,1
    17e0:	00158593          	addi	a1,a1,1
    17e4:	00d61463          	bne	a2,a3,17ec <strcmp+0x124>
    17e8:	fe0616e3          	bnez	a2,17d4 <strcmp+0x10c>
    17ec:	40d60533          	sub	a0,a2,a3
    17f0:	00008067          	ret
    17f4:	00450513          	addi	a0,a0,4
    17f8:	00458593          	addi	a1,a1,4
    17fc:	fcd61ce3          	bne	a2,a3,17d4 <strcmp+0x10c>
    1800:	00000513          	li	a0,0
    1804:	00008067          	ret
    1808:	00850513          	addi	a0,a0,8
    180c:	00858593          	addi	a1,a1,8
    1810:	fcd612e3          	bne	a2,a3,17d4 <strcmp+0x10c>
    1814:	00000513          	li	a0,0
    1818:	00008067          	ret
    181c:	00c50513          	addi	a0,a0,12
    1820:	00c58593          	addi	a1,a1,12
    1824:	fad618e3          	bne	a2,a3,17d4 <strcmp+0x10c>
    1828:	00000513          	li	a0,0
    182c:	00008067          	ret
    1830:	01050513          	addi	a0,a0,16
    1834:	01058593          	addi	a1,a1,16
    1838:	f8d61ee3          	bne	a2,a3,17d4 <strcmp+0x10c>
    183c:	00000513          	li	a0,0
    1840:	00008067          	ret

00001844 <strcpy>:
    1844:	00b567b3          	or	a5,a0,a1
    1848:	0037f793          	andi	a5,a5,3
    184c:	08079263          	bnez	a5,18d0 <strcpy+0x8c>
    1850:	0005a703          	lw	a4,0(a1)
    1854:	7f7f86b7          	lui	a3,0x7f7f8
    1858:	f7f68693          	addi	a3,a3,-129 # 7f7f7f7f <_end+0x3f7f7bbf>
    185c:	00d777b3          	and	a5,a4,a3
    1860:	00d787b3          	add	a5,a5,a3
    1864:	00e7e7b3          	or	a5,a5,a4
    1868:	00d7e7b3          	or	a5,a5,a3
    186c:	fff00613          	li	a2,-1
    1870:	06c79e63          	bne	a5,a2,18ec <strcpy+0xa8>
    1874:	00050613          	mv	a2,a0
    1878:	fff00813          	li	a6,-1
    187c:	00e62023          	sw	a4,0(a2)
    1880:	0045a703          	lw	a4,4(a1)
    1884:	00458593          	addi	a1,a1,4
    1888:	00460613          	addi	a2,a2,4
    188c:	00d777b3          	and	a5,a4,a3
    1890:	00d787b3          	add	a5,a5,a3
    1894:	00e7e7b3          	or	a5,a5,a4
    1898:	00d7e7b3          	or	a5,a5,a3
    189c:	ff0780e3          	beq	a5,a6,187c <strcpy+0x38>
    18a0:	0005c783          	lbu	a5,0(a1)
    18a4:	0015c703          	lbu	a4,1(a1)
    18a8:	0025c683          	lbu	a3,2(a1)
    18ac:	00f60023          	sb	a5,0(a2)
    18b0:	00078a63          	beqz	a5,18c4 <strcpy+0x80>
    18b4:	00e600a3          	sb	a4,1(a2)
    18b8:	00070663          	beqz	a4,18c4 <strcpy+0x80>
    18bc:	00d60123          	sb	a3,2(a2)
    18c0:	00069463          	bnez	a3,18c8 <strcpy+0x84>
    18c4:	00008067          	ret
    18c8:	000601a3          	sb	zero,3(a2)
    18cc:	00008067          	ret
    18d0:	00050793          	mv	a5,a0
    18d4:	0005c703          	lbu	a4,0(a1)
    18d8:	00178793          	addi	a5,a5,1
    18dc:	00158593          	addi	a1,a1,1
    18e0:	fee78fa3          	sb	a4,-1(a5)
    18e4:	fe0718e3          	bnez	a4,18d4 <strcpy+0x90>
    18e8:	00008067          	ret
    18ec:	00050613          	mv	a2,a0
    18f0:	fb1ff06f          	j	18a0 <strcpy+0x5c>

000018f4 <strlen>:
    18f4:	00357793          	andi	a5,a0,3
    18f8:	00050713          	mv	a4,a0
    18fc:	04079c63          	bnez	a5,1954 <strlen+0x60>
    1900:	7f7f86b7          	lui	a3,0x7f7f8
    1904:	f7f68693          	addi	a3,a3,-129 # 7f7f7f7f <_end+0x3f7f7bbf>
    1908:	fff00593          	li	a1,-1
    190c:	00072603          	lw	a2,0(a4)
    1910:	00470713          	addi	a4,a4,4
    1914:	00d677b3          	and	a5,a2,a3
    1918:	00d787b3          	add	a5,a5,a3
    191c:	00c7e7b3          	or	a5,a5,a2
    1920:	00d7e7b3          	or	a5,a5,a3
    1924:	feb784e3          	beq	a5,a1,190c <strlen+0x18>
    1928:	ffc74683          	lbu	a3,-4(a4)
    192c:	ffd74603          	lbu	a2,-3(a4)
    1930:	ffe74783          	lbu	a5,-2(a4)
    1934:	40a70733          	sub	a4,a4,a0
    1938:	04068063          	beqz	a3,1978 <strlen+0x84>
    193c:	02060a63          	beqz	a2,1970 <strlen+0x7c>
    1940:	00f03533          	snez	a0,a5
    1944:	00e50533          	add	a0,a0,a4
    1948:	ffe50513          	addi	a0,a0,-2
    194c:	00008067          	ret
    1950:	fa0688e3          	beqz	a3,1900 <strlen+0xc>
    1954:	00074783          	lbu	a5,0(a4)
    1958:	00170713          	addi	a4,a4,1
    195c:	00377693          	andi	a3,a4,3
    1960:	fe0798e3          	bnez	a5,1950 <strlen+0x5c>
    1964:	40a70733          	sub	a4,a4,a0
    1968:	fff70513          	addi	a0,a4,-1
    196c:	00008067          	ret
    1970:	ffd70513          	addi	a0,a4,-3
    1974:	00008067          	ret
    1978:	ffc70513          	addi	a0,a4,-4
    197c:	00008067          	ret

00001980 <__mulsi3>:
    1980:	00050613          	mv	a2,a0
    1984:	00000513          	li	a0,0
    1988:	0015f693          	andi	a3,a1,1
    198c:	00068463          	beqz	a3,1994 <__mulsi3+0x14>
    1990:	00c50533          	add	a0,a0,a2
    1994:	0015d593          	srli	a1,a1,0x1
    1998:	00161613          	slli	a2,a2,0x1
    199c:	fe0596e3          	bnez	a1,1988 <__mulsi3+0x8>
    19a0:	00008067          	ret

000019a4 <__divsi3>:
    19a4:	06054063          	bltz	a0,1a04 <__umodsi3+0x10>
    19a8:	0605c663          	bltz	a1,1a14 <__umodsi3+0x20>

000019ac <__udivsi3>:
    19ac:	00058613          	mv	a2,a1
    19b0:	00050593          	mv	a1,a0
    19b4:	fff00513          	li	a0,-1
    19b8:	02060c63          	beqz	a2,19f0 <__udivsi3+0x44>
    19bc:	00100693          	li	a3,1
    19c0:	00b67a63          	bgeu	a2,a1,19d4 <__udivsi3+0x28>
    19c4:	00c05863          	blez	a2,19d4 <__udivsi3+0x28>
    19c8:	00161613          	slli	a2,a2,0x1
    19cc:	00169693          	slli	a3,a3,0x1
    19d0:	feb66ae3          	bltu	a2,a1,19c4 <__udivsi3+0x18>
    19d4:	00000513          	li	a0,0
    19d8:	00c5e663          	bltu	a1,a2,19e4 <__udivsi3+0x38>
    19dc:	40c585b3          	sub	a1,a1,a2
    19e0:	00d56533          	or	a0,a0,a3
    19e4:	0016d693          	srli	a3,a3,0x1
    19e8:	00165613          	srli	a2,a2,0x1
    19ec:	fe0696e3          	bnez	a3,19d8 <__udivsi3+0x2c>
    19f0:	00008067          	ret

000019f4 <__umodsi3>:
    19f4:	00008293          	mv	t0,ra
    19f8:	fb5ff0ef          	jal	ra,19ac <__udivsi3>
    19fc:	00058513          	mv	a0,a1
    1a00:	00028067          	jr	t0
    1a04:	40a00533          	neg	a0,a0
    1a08:	0005d863          	bgez	a1,1a18 <__umodsi3+0x24>
    1a0c:	40b005b3          	neg	a1,a1
    1a10:	f9dff06f          	j	19ac <__udivsi3>
    1a14:	40b005b3          	neg	a1,a1
    1a18:	00008293          	mv	t0,ra
    1a1c:	f91ff0ef          	jal	ra,19ac <__udivsi3>
    1a20:	40a00533          	neg	a0,a0
    1a24:	00028067          	jr	t0

00001a28 <__modsi3>:
    1a28:	00008293          	mv	t0,ra
    1a2c:	0005ca63          	bltz	a1,1a40 <__modsi3+0x18>
    1a30:	00054c63          	bltz	a0,1a48 <__modsi3+0x20>
    1a34:	f79ff0ef          	jal	ra,19ac <__udivsi3>
    1a38:	00058513          	mv	a0,a1
    1a3c:	00028067          	jr	t0
    1a40:	40b005b3          	neg	a1,a1
    1a44:	fe0558e3          	bgez	a0,1a34 <__modsi3+0xc>
    1a48:	40a00533          	neg	a0,a0
    1a4c:	f61ff0ef          	jal	ra,19ac <__udivsi3>
    1a50:	40b00533          	neg	a0,a1
    1a54:	00028067          	jr	t0

Disassembly of section .sdata:

40000000 <uart_rx_intr_flag>:
40000000:	0120                	addi	s0,sp,136
40000002:	8000                	0x8000

40000004 <uart_rx_intr_flag_clr>:
40000004:	0124                	addi	s1,sp,136
40000006:	8000                	0x8000

40000008 <uart_rx_data>:
40000008:	0128                	addi	a0,sp,136
4000000a:	8000                	0x8000

4000000c <cmd_str>:
4000000c:	03b0                	addi	a2,sp,456
4000000e:	4000                	lw	s0,0(s0)

40000010 <digits>:
40000010:	00fc                	addi	a5,sp,76
40000012:	4000                	lw	s0,0(s0)

40000014 <upper_digits>:
40000014:	0124                	addi	s1,sp,136
40000016:	4000                	lw	s0,0(s0)

Disassembly of section .rodata:

40000018 <.rodata>:
40000018:	2a62                	fld	fs4,24(sp)
4000001a:	20203d63          	0x20203d63
4000001e:	6425                	lui	s0,0x9
40000020:	000a                	c.slli	zero,0x2
40000022:	0000                	unimp
40000024:	52415453          	0x52415453
40000028:	20414553          	0x20414553
4000002c:	4952                	lw	s2,20(sp)
4000002e:	20564353          	0x20564353
40000032:	45524f43          	0x45524f43
40000036:	2021                	jal	4000003e <upper_digits+0x2a>
40000038:	4148                	lw	a0,4(a0)
4000003a:	5050                	lw	a2,36(s0)
4000003c:	2059                	jal	400000c2 <upper_digits+0xae>
4000003e:	4542                	lw	a0,16(sp)
40000040:	5920                	lw	s0,112(a0)
40000042:	5352554f          	fnmadd.d	fa0,ft4,fs5,fa0,unknown
40000046:	4c45                	li	s8,17
40000048:	0a46                	slli	s4,s4,0x11
4000004a:	0000                	unimp
4000004c:	6574                	flw	fa3,76(a0)
4000004e:	000a7473          	csrrci	s0,ustatus,20
40000052:	0000                	unimp
40000054:	6d6d6f63          	bltu	s10,s6,40000732 <_end+0x372>
40000058:	6e61                	lui	t3,0x18
4000005a:	2064                	fld	fs1,192(s0)
4000005c:	656c                	flw	fa1,76(a0)
4000005e:	206e                	fld	ft0,216(sp)
40000060:	7369                	lui	t1,0xffffa
40000062:	7420                	flw	fs0,104(s0)
40000064:	6c206f6f          	jal	t5,40006726 <_end+0x6366>
40000068:	7261                	lui	tp,0xffff8
4000006a:	6d2c6567          	0x6d2c6567
4000006e:	7375                	lui	t1,0xffffd
40000070:	2074                	fld	fa3,192(s0)
40000072:	313c                	fld	fa5,96(a0)
40000074:	2035                	jal	400000a0 <upper_digits+0x8c>
40000076:	6e61                	lui	t3,0x18
40000078:	2064                	fld	fs1,192(s0)
4000007a:	6168                	flw	fa0,68(a0)
4000007c:	20612073          	csrs	0x206,sp
40000080:	4e45                	li	t3,17
40000082:	4554                	lw	a3,12(a0)
40000084:	2052                	fld	ft0,272(sp)
40000086:	6e65                	lui	t3,0x19
40000088:	6964                	flw	fs1,84(a0)
4000008a:	676e                	flw	fa4,216(sp)
4000008c:	0a20                	addi	s0,sp,280
4000008e:	0000                	unimp
40000090:	6572                	flw	fa0,28(sp)
40000092:	76696563          	bltu	s2,t1,400007fc <_end+0x43c>
40000096:	7265                	lui	tp,0xffff9
40000098:	2064                	fld	fs1,192(s0)
4000009a:	2061                	jal	40000122 <upper_digits+0x10e>
4000009c:	6175                	addi	sp,sp,368
4000009e:	7472                	flw	fs0,60(sp)
400000a0:	725f 2078 6e69      	0x6e692078725f
400000a6:	6574                	flw	fa3,76(a0)
400000a8:	7272                	flw	ft4,60(sp)
400000aa:	7075                	c.lui	zero,0xffffd
400000ac:	0a74                	addi	a3,sp,284
400000ae:	0000                	unimp
400000b0:	6325                	lui	t1,0x9
400000b2:	0000                	unimp
400000b4:	000a                	c.slli	zero,0x2
400000b6:	0000                	unimp
400000b8:	6572                	flw	fa0,28(sp)
400000ba:	76696563          	bltu	s2,t1,40000824 <_end+0x464>
400000be:	7265                	lui	tp,0xffff9
400000c0:	2064                	fld	fs1,192(s0)
400000c2:	2061                	jal	4000014a <upper_digits+0x136>
400000c4:	6f6e                	flw	ft10,216(sp)
400000c6:	206e                	fld	ft0,216(sp)
400000c8:	6175                	addi	sp,sp,368
400000ca:	7472                	flw	fs0,60(sp)
400000cc:	725f 2078 6e69      	0x6e692078725f
400000d2:	6574                	flw	fa3,76(a0)
400000d4:	7272                	flw	ft4,60(sp)
400000d6:	7075                	c.lui	zero,0xffffd
400000d8:	0a74                	addi	a3,sp,284
400000da:	0000                	unimp
400000dc:	2061                	jal	40000164 <upper_digits+0x150>
400000de:	696d                	lui	s2,0x1b
400000e0:	696c6173          	csrrsi	sp,0x696,24
400000e4:	65206e67          	0x65206e67
400000e8:	6378                	flw	fa4,68(a4)
400000ea:	7065                	c.lui	zero,0xffff9
400000ec:	6974                	flw	fa3,84(a0)
400000ee:	68206e6f          	jal	t3,40006770 <_end+0x63b0>
400000f2:	7061                	c.lui	zero,0xffff8
400000f4:	6570                	flw	fa2,76(a0)
400000f6:	656e                	flw	fa0,216(sp)
400000f8:	0a64                	addi	s1,sp,284
400000fa:	0000                	unimp
400000fc:	3130                	fld	fa2,96(a0)
400000fe:	3332                	fld	ft6,296(sp)
40000100:	3534                	fld	fa3,104(a0)
40000102:	3736                	fld	fa4,360(sp)
40000104:	3938                	fld	fa4,112(a0)
40000106:	6261                	lui	tp,0x18
40000108:	66656463          	bltu	a0,t1,40000770 <_end+0x3b0>
4000010c:	6a696867          	0x6a696867
40000110:	6e6d6c6b          	0x6e6d6c6b
40000114:	7271706f          	j	4001803a <_end+0x17c7a>
40000118:	76757473          	csrrci	s0,0x767,10
4000011c:	7a797877          	0x7a797877
40000120:	0000                	unimp
40000122:	0000                	unimp
40000124:	3130                	fld	fa2,96(a0)
40000126:	3332                	fld	ft6,296(sp)
40000128:	3534                	fld	fa3,104(a0)
4000012a:	3736                	fld	fa4,360(sp)
4000012c:	3938                	fld	fa4,112(a0)
4000012e:	4241                	li	tp,16
40000130:	46454443          	fmadd.q	fs0,fa0,ft4,fs0,rmm
40000134:	4a494847          	fmsub.d	fa6,fs2,ft4,fs1,rmm
40000138:	4e4d4c4b          	fnmsub.q	fs8,fs10,ft4,fs1,rmm
4000013c:	5251504f          	fnmadd.d	ft0,ft2,ft5,fa0,unknown
40000140:	56555453          	0x56555453
40000144:	5a595857          	0x5a595857
40000148:	0000                	unimp
4000014a:	0000                	unimp
4000014c:	4e3c                	lw	a5,88(a2)
4000014e:	4c55                	li	s8,21
40000150:	3e4c                	fld	fa1,184(a2)
40000152:	0000                	unimp
40000154:	0dc0                	addi	s0,sp,724
40000156:	0000                	unimp
40000158:	0df0                	addi	a2,sp,732
4000015a:	0000                	unimp
4000015c:	0df0                	addi	a2,sp,732
4000015e:	0000                	unimp
40000160:	0dd0                	addi	a2,sp,724
40000162:	0000                	unimp
40000164:	0df0                	addi	a2,sp,732
40000166:	0000                	unimp
40000168:	0df0                	addi	a2,sp,732
4000016a:	0000                	unimp
4000016c:	0df0                	addi	a2,sp,732
4000016e:	0000                	unimp
40000170:	0df0                	addi	a2,sp,732
40000172:	0000                	unimp
40000174:	0df0                	addi	a2,sp,732
40000176:	0000                	unimp
40000178:	0df0                	addi	a2,sp,732
4000017a:	0000                	unimp
4000017c:	0df0                	addi	a2,sp,732
4000017e:	0000                	unimp
40000180:	0db0                	addi	a2,sp,728
40000182:	0000                	unimp
40000184:	0df0                	addi	a2,sp,732
40000186:	0000                	unimp
40000188:	0da0                	addi	s0,sp,728
4000018a:	0000                	unimp
4000018c:	0df0                	addi	a2,sp,732
4000018e:	0000                	unimp
40000190:	0df0                	addi	a2,sp,732
40000192:	0000                	unimp
40000194:	0de0                	addi	s0,sp,732
40000196:	0000                	unimp
40000198:	114c                	addi	a1,sp,164
4000019a:	0000                	unimp
4000019c:	11f8                	addi	a4,sp,236
4000019e:	0000                	unimp
400001a0:	11f8                	addi	a4,sp,236
400001a2:	0000                	unimp
400001a4:	11f8                	addi	a4,sp,236
400001a6:	0000                	unimp
400001a8:	11f8                	addi	a4,sp,236
400001aa:	0000                	unimp
400001ac:	11f8                	addi	a4,sp,236
400001ae:	0000                	unimp
400001b0:	11f8                	addi	a4,sp,236
400001b2:	0000                	unimp
400001b4:	11f8                	addi	a4,sp,236
400001b6:	0000                	unimp
400001b8:	11f8                	addi	a4,sp,236
400001ba:	0000                	unimp
400001bc:	11f8                	addi	a4,sp,236
400001be:	0000                	unimp
400001c0:	11f8                	addi	a4,sp,236
400001c2:	0000                	unimp
400001c4:	11f8                	addi	a4,sp,236
400001c6:	0000                	unimp
400001c8:	11f8                	addi	a4,sp,236
400001ca:	0000                	unimp
400001cc:	11f8                	addi	a4,sp,236
400001ce:	0000                	unimp
400001d0:	11f8                	addi	a4,sp,236
400001d2:	0000                	unimp
400001d4:	11f8                	addi	a4,sp,236
400001d6:	0000                	unimp
400001d8:	11f8                	addi	a4,sp,236
400001da:	0000                	unimp
400001dc:	11f8                	addi	a4,sp,236
400001de:	0000                	unimp
400001e0:	11f8                	addi	a4,sp,236
400001e2:	0000                	unimp
400001e4:	11f8                	addi	a4,sp,236
400001e6:	0000                	unimp
400001e8:	11f8                	addi	a4,sp,236
400001ea:	0000                	unimp
400001ec:	11f8                	addi	a4,sp,236
400001ee:	0000                	unimp
400001f0:	11f8                	addi	a4,sp,236
400001f2:	0000                	unimp
400001f4:	11d0                	addi	a2,sp,228
400001f6:	0000                	unimp
400001f8:	11f8                	addi	a4,sp,236
400001fa:	0000                	unimp
400001fc:	11f8                	addi	a4,sp,236
400001fe:	0000                	unimp
40000200:	11f8                	addi	a4,sp,236
40000202:	0000                	unimp
40000204:	11f8                	addi	a4,sp,236
40000206:	0000                	unimp
40000208:	11f8                	addi	a4,sp,236
4000020a:	0000                	unimp
4000020c:	11f8                	addi	a4,sp,236
4000020e:	0000                	unimp
40000210:	11f8                	addi	a4,sp,236
40000212:	0000                	unimp
40000214:	11f8                	addi	a4,sp,236
40000216:	0000                	unimp
40000218:	1158                	addi	a4,sp,164
4000021a:	0000                	unimp
4000021c:	11f8                	addi	a4,sp,236
4000021e:	0000                	unimp
40000220:	0f84                	addi	s1,sp,976
40000222:	0000                	unimp
40000224:	11e8                	addi	a0,sp,236
40000226:	0000                	unimp
40000228:	11f8                	addi	a4,sp,236
4000022a:	0000                	unimp
4000022c:	11f8                	addi	a4,sp,236
4000022e:	0000                	unimp
40000230:	11f8                	addi	a4,sp,236
40000232:	0000                	unimp
40000234:	11f8                	addi	a4,sp,236
40000236:	0000                	unimp
40000238:	11e8                	addi	a0,sp,236
4000023a:	0000                	unimp
4000023c:	11f8                	addi	a4,sp,236
4000023e:	0000                	unimp
40000240:	11f8                	addi	a4,sp,236
40000242:	0000                	unimp
40000244:	11f8                	addi	a4,sp,236
40000246:	0000                	unimp
40000248:	11f8                	addi	a4,sp,236
4000024a:	0000                	unimp
4000024c:	11f8                	addi	a4,sp,236
4000024e:	0000                	unimp
40000250:	11c4                	addi	s1,sp,228
40000252:	0000                	unimp
40000254:	10f8                	addi	a4,sp,108
40000256:	0000                	unimp
40000258:	11f8                	addi	a4,sp,236
4000025a:	0000                	unimp
4000025c:	11f8                	addi	a4,sp,236
4000025e:	0000                	unimp
40000260:	1010                	addi	a2,sp,32
40000262:	0000                	unimp
40000264:	11f8                	addi	a4,sp,236
40000266:	0000                	unimp
40000268:	1254                	addi	a3,sp,292
4000026a:	0000                	unimp
4000026c:	11f8                	addi	a4,sp,236
4000026e:	0000                	unimp
40000270:	11f8                	addi	a4,sp,236
40000272:	0000                	unimp
40000274:	11dc                	addi	a5,sp,228
40000276:	0000                	unimp
40000278:	656c                	flw	fa1,76(a0)
4000027a:	2064                	fld	fs1,192(s0)
4000027c:	6574                	flw	fa3,76(a0)
4000027e:	00007473          	csrrci	s0,ustatus,0
	...
4000028e:	0000                	unimp
40000290:	161c                	addi	a5,sp,800
	...

Disassembly of section .bss:

40000294 <commands>:
	...

400003b0 <uart_rx_buffer>:
	...

Disassembly of section .sbss:

400003c0 <uart_rx_len>:
400003c0:	0000                	unimp
	...

Disassembly of section .riscv.attributes:

00000000 <.riscv.attributes>:
   0:	1d41                	addi	s10,s10,-16
   2:	0000                	unimp
   4:	7200                	flw	fs0,32(a2)
   6:	7369                	lui	t1,0xffffa
   8:	01007663          	bgeu	zero,a6,14 <_start+0x14>
   c:	00000013          	nop
  10:	1004                	addi	s1,sp,32
  12:	7205                	lui	tp,0xfffe1
  14:	3376                	fld	ft6,376(sp)
  16:	6932                	flw	fs2,12(sp)
  18:	7032                	flw	ft0,44(sp)
  1a:	0030                	addi	a2,sp,8
  1c:	0106                	slli	sp,sp,0x1

Disassembly of section .comment:

00000000 <.comment>:
   0:	3a434347          	fmsub.d	ft6,ft6,ft4,ft7,rmm
   4:	2820                	fld	fs0,80(s0)
   6:	29554e47          	fmsub.s	ft8,fa0,fs5,ft5,rmm
   a:	3920                	fld	fs0,112(a0)
   c:	322e                	fld	ft4,232(sp)
   e:	302e                	fld	ft0,232(sp)
	...

Disassembly of section .debug_line:

00000000 <.debug_line>:
   0:	008e                	slli	ra,ra,0x3
   2:	0000                	unimp
   4:	00480003          	lb	zero,4(a6)
   8:	0000                	unimp
   a:	0101                	addi	sp,sp,0
   c:	000d0efb          	0xd0efb
  10:	0101                	addi	sp,sp,0
  12:	0101                	addi	sp,sp,0
  14:	0000                	unimp
  16:	0100                	addi	s0,sp,128
  18:	0000                	unimp
  1a:	2e01                	jal	32a <isr+0xca>
  1c:	2f2e                	fld	ft10,200(sp)
  1e:	2e2e                	fld	ft8,200(sp)
  20:	2f2e2e2f          	0x2f2e2e2f
  24:	2f2e                	fld	ft10,200(sp)
  26:	6972                	flw	fs2,28(sp)
  28:	2d766373          	csrrsi	t1,0x2d7,12
  2c:	2f636367          	0x2f636367
  30:	696c                	flw	fa1,84(a0)
  32:	6762                	flw	fa4,24(sp)
  34:	632f6363          	bltu	t5,s2,65a <number+0x162>
  38:	69666e6f          	jal	t3,666ce <__modsi3+0x64ca6>
  3c:	69722f67          	0x69722f67
  40:	00766373          	csrrsi	t1,0x7,12
  44:	6d00                	flw	fs0,24(a0)
  46:	6c75                	lui	s8,0x1d
  48:	6964                	flw	fs1,84(a0)
  4a:	00532e33          	slt	t3,t1,t0
  4e:	0001                	nop
  50:	0000                	unimp
  52:	0500                	addi	s0,sp,640
  54:	8002                	0x8002
  56:	0019                	c.nop	6
  58:	0300                	addi	s0,sp,384
  5a:	0124                	addi	s1,sp,136
  5c:	04090103          	lb	sp,64(s2) # 1b040 <__modsi3+0x19618>
  60:	0100                	addi	s0,sp,128
  62:	04090203          	lb	tp,64(s2)
  66:	0100                	addi	s0,sp,128
  68:	04090103          	lb	sp,64(s2)
  6c:	0100                	addi	s0,sp,128
  6e:	04090103          	lb	sp,64(s2)
  72:	0100                	addi	s0,sp,128
  74:	04090203          	lb	tp,64(s2)
  78:	0100                	addi	s0,sp,128
  7a:	04090103          	lb	sp,64(s2)
  7e:	0100                	addi	s0,sp,128
  80:	04090103          	lb	sp,64(s2)
  84:	0100                	addi	s0,sp,128
  86:	04090103          	lb	sp,64(s2)
  8a:	0100                	addi	s0,sp,128
  8c:	0409                	addi	s0,s0,2
  8e:	0000                	unimp
  90:	0101                	addi	sp,sp,0
  92:	0164                	addi	s1,sp,140
  94:	0000                	unimp
  96:	00450003          	lb	zero,4(a0)
  9a:	0000                	unimp
  9c:	0101                	addi	sp,sp,0
  9e:	000d0efb          	0xd0efb
  a2:	0101                	addi	sp,sp,0
  a4:	0101                	addi	sp,sp,0
  a6:	0000                	unimp
  a8:	0100                	addi	s0,sp,128
  aa:	0000                	unimp
  ac:	2e01                	jal	3bc <isr+0x15c>
  ae:	2f2e                	fld	ft10,200(sp)
  b0:	2e2e                	fld	ft8,200(sp)
  b2:	2f2e2e2f          	0x2f2e2e2f
  b6:	2f2e                	fld	ft10,200(sp)
  b8:	6972                	flw	fs2,28(sp)
  ba:	2d766373          	csrrsi	t1,0x2d7,12
  be:	2f636367          	0x2f636367
  c2:	696c                	flw	fa1,84(a0)
  c4:	6762                	flw	fa4,24(sp)
  c6:	632f6363          	bltu	t5,s2,6ec <number+0x1f4>
  ca:	69666e6f          	jal	t3,66760 <__modsi3+0x64d38>
  ce:	69722f67          	0x69722f67
  d2:	00766373          	csrrsi	t1,0x7,12
  d6:	6400                	flw	fs0,8(s0)
  d8:	7669                	lui	a2,0xffffa
  da:	532e                	lw	t1,232(sp)
  dc:	0100                	addi	s0,sp,128
  de:	0000                	unimp
  e0:	0000                	unimp
  e2:	0205                	addi	tp,tp,1
  e4:	19a4                	addi	s1,sp,248
  e6:	0000                	unimp
  e8:	0100c403          	lbu	s0,16(ra)
  ec:	04090103          	lb	sp,64(s2)
  f0:	0100                	addi	s0,sp,128
  f2:	04090403          	lb	s0,64(s2)
  f6:	0100                	addi	s0,sp,128
  f8:	04090103          	lb	sp,64(s2)
  fc:	0100                	addi	s0,sp,128
  fe:	04090103          	lb	sp,64(s2)
 102:	0100                	addi	s0,sp,128
 104:	04090103          	lb	sp,64(s2)
 108:	0100                	addi	s0,sp,128
 10a:	04090103          	lb	sp,64(s2)
 10e:	0100                	addi	s0,sp,128
 110:	04090103          	lb	sp,64(s2)
 114:	0100                	addi	s0,sp,128
 116:	04090203          	lb	tp,64(s2)
 11a:	0100                	addi	s0,sp,128
 11c:	04090103          	lb	sp,64(s2)
 120:	0100                	addi	s0,sp,128
 122:	04090103          	lb	sp,64(s2)
 126:	0100                	addi	s0,sp,128
 128:	04090103          	lb	sp,64(s2)
 12c:	0100                	addi	s0,sp,128
 12e:	04090203          	lb	tp,64(s2)
 132:	0100                	addi	s0,sp,128
 134:	04090203          	lb	tp,64(s2)
 138:	0100                	addi	s0,sp,128
 13a:	04090103          	lb	sp,64(s2)
 13e:	0100                	addi	s0,sp,128
 140:	04090103          	lb	sp,64(s2)
 144:	0100                	addi	s0,sp,128
 146:	04090203          	lb	tp,64(s2)
 14a:	0100                	addi	s0,sp,128
 14c:	04090103          	lb	sp,64(s2)
 150:	0100                	addi	s0,sp,128
 152:	04090103          	lb	sp,64(s2)
 156:	0100                	addi	s0,sp,128
 158:	04090203          	lb	tp,64(s2)
 15c:	0100                	addi	s0,sp,128
 15e:	04090503          	lb	a0,64(s2)
 162:	0100                	addi	s0,sp,128
 164:	04090103          	lb	sp,64(s2)
 168:	0100                	addi	s0,sp,128
 16a:	04090103          	lb	sp,64(s2)
 16e:	0100                	addi	s0,sp,128
 170:	04090103          	lb	sp,64(s2)
 174:	0100                	addi	s0,sp,128
 176:	04090503          	lb	a0,64(s2)
 17a:	0100                	addi	s0,sp,128
 17c:	04090103          	lb	sp,64(s2)
 180:	0100                	addi	s0,sp,128
 182:	04090103          	lb	sp,64(s2)
 186:	0100                	addi	s0,sp,128
 188:	04090103          	lb	sp,64(s2)
 18c:	0100                	addi	s0,sp,128
 18e:	04090203          	lb	tp,64(s2)
 192:	0100                	addi	s0,sp,128
 194:	04090203          	lb	tp,64(s2)
 198:	0100                	addi	s0,sp,128
 19a:	04090103          	lb	sp,64(s2)
 19e:	0100                	addi	s0,sp,128
 1a0:	04090103          	lb	sp,64(s2)
 1a4:	0100                	addi	s0,sp,128
 1a6:	04090103          	lb	sp,64(s2)
 1aa:	0100                	addi	s0,sp,128
 1ac:	04090403          	lb	s0,64(s2)
 1b0:	0100                	addi	s0,sp,128
 1b2:	04090103          	lb	sp,64(s2)
 1b6:	0100                	addi	s0,sp,128
 1b8:	04090103          	lb	sp,64(s2)
 1bc:	0100                	addi	s0,sp,128
 1be:	04090203          	lb	tp,64(s2)
 1c2:	0100                	addi	s0,sp,128
 1c4:	04090103          	lb	sp,64(s2)
 1c8:	0100                	addi	s0,sp,128
 1ca:	04090103          	lb	sp,64(s2)
 1ce:	0100                	addi	s0,sp,128
 1d0:	04090203          	lb	tp,64(s2)
 1d4:	0100                	addi	s0,sp,128
 1d6:	04090103          	lb	sp,64(s2)
 1da:	0100                	addi	s0,sp,128
 1dc:	04090203          	lb	tp,64(s2)
 1e0:	0100                	addi	s0,sp,128
 1e2:	04090103          	lb	sp,64(s2)
 1e6:	0100                	addi	s0,sp,128
 1e8:	04090103          	lb	sp,64(s2)
 1ec:	0100                	addi	s0,sp,128
 1ee:	04090103          	lb	sp,64(s2)
 1f2:	0100                	addi	s0,sp,128
 1f4:	0409                	addi	s0,s0,2
 1f6:	0000                	unimp
 1f8:	0101                	addi	sp,sp,0

Disassembly of section .debug_info:

00000000 <.debug_info>:
   0:	0022                	c.slli	zero,0x8
   2:	0000                	unimp
   4:	0002                	c.slli64	zero
   6:	0000                	unimp
   8:	0000                	unimp
   a:	0104                	addi	s1,sp,128
   c:	0000                	unimp
   e:	0000                	unimp
  10:	1980                	addi	s0,sp,240
  12:	0000                	unimp
  14:	19a4                	addi	s1,sp,248
  16:	0000                	unimp
  18:	0000                	unimp
  1a:	0000                	unimp
  1c:	0032                	c.slli	zero,0xc
  1e:	0000                	unimp
  20:	007f                	0x7f
  22:	0000                	unimp
  24:	8001                	c.srli64	s0
  26:	0022                	c.slli	zero,0x8
  28:	0000                	unimp
  2a:	0002                	c.slli64	zero
  2c:	0014                	0x14
  2e:	0000                	unimp
  30:	0104                	addi	s1,sp,128
  32:	0092                	slli	ra,ra,0x4
  34:	0000                	unimp
  36:	19a4                	addi	s1,sp,248
  38:	0000                	unimp
  3a:	1a58                	addi	a4,sp,308
  3c:	0000                	unimp
  3e:	0000008b          	0x8b
  42:	0032                	c.slli	zero,0xc
  44:	0000                	unimp
  46:	007f                	0x7f
  48:	0000                	unimp
  4a:	8001                	c.srli64	s0

Disassembly of section .debug_abbrev:

00000000 <.debug_abbrev>:
   0:	1101                	addi	sp,sp,-32
   2:	1000                	addi	s0,sp,32
   4:	1106                	slli	sp,sp,0x21
   6:	1201                	addi	tp,tp,-32
   8:	0301                	addi	t1,t1,0
   a:	1b0e                	slli	s6,s6,0x23
   c:	250e                	fld	fa0,192(sp)
   e:	130e                	slli	t1,t1,0x23
  10:	0005                	c.nop	1
  12:	0000                	unimp
  14:	1101                	addi	sp,sp,-32
  16:	1000                	addi	s0,sp,32
  18:	1106                	slli	sp,sp,0x21
  1a:	1201                	addi	tp,tp,-32
  1c:	0301                	addi	t1,t1,0
  1e:	1b0e                	slli	s6,s6,0x23
  20:	250e                	fld	fa0,192(sp)
  22:	130e                	slli	t1,t1,0x23
  24:	0005                	c.nop	1
	...

Disassembly of section .debug_aranges:

00000000 <.debug_aranges>:
   0:	001c                	0x1c
   2:	0000                	unimp
   4:	0002                	c.slli64	zero
   6:	0000                	unimp
   8:	0000                	unimp
   a:	0004                	0x4
   c:	0000                	unimp
   e:	0000                	unimp
  10:	1980                	addi	s0,sp,240
  12:	0000                	unimp
  14:	0024                	addi	s1,sp,8
	...
  1e:	0000                	unimp
  20:	001c                	0x1c
  22:	0000                	unimp
  24:	0002                	c.slli64	zero
  26:	0026                	c.slli	zero,0x9
  28:	0000                	unimp
  2a:	0004                	0x4
  2c:	0000                	unimp
  2e:	0000                	unimp
  30:	19a4                	addi	s1,sp,248
  32:	0000                	unimp
  34:	00b4                	addi	a3,sp,72
	...

Disassembly of section .debug_str:

00000000 <.debug_str>:
   0:	2e2e                	fld	ft8,200(sp)
   2:	2f2e2e2f          	0x2f2e2e2f
   6:	2e2e                	fld	ft8,200(sp)
   8:	722f2e2f          	0x722f2e2f
   c:	7369                	lui	t1,0xffffa
   e:	672d7663          	bgeu	s10,s2,67a <number+0x182>
  12:	6c2f6363          	bltu	t5,sp,6d8 <number+0x1e0>
  16:	6269                	lui	tp,0x1a
  18:	2f636367          	0x2f636367
  1c:	666e6f63          	bltu	t3,t1,69a <number+0x1a2>
  20:	6769                	lui	a4,0x1a
  22:	7369722f          	0x7369722f
  26:	6d2f7663          	bgeu	t5,s2,6f2 <number+0x1fa>
  2a:	6c75                	lui	s8,0x1d
  2c:	6964                	flw	fs1,84(a0)
  2e:	00532e33          	slt	t3,t1,t0
  32:	6f6f722f          	0x6f6f722f
  36:	2f74                	fld	fa3,216(a4)
  38:	6972                	flw	fs2,28(sp)
  3a:	2d766373          	csrrsi	t1,0x2d7,12
  3e:	2d756e67          	0x2d756e67
  42:	6f74                	flw	fa3,92(a4)
  44:	68636c6f          	jal	s8,366ca <__modsi3+0x34ca2>
  48:	6961                	lui	s2,0x18
  4a:	2f6e                	fld	ft10,216(sp)
  4c:	7562                	flw	fa0,56(sp)
  4e:	6c69                	lui	s8,0x1a
  50:	2d64                	fld	fs1,216(a0)
  52:	2d636367          	0x2d636367
  56:	656e                	flw	fa0,216(sp)
  58:	62696c77          	0x62696c77
  5c:	732d                	lui	t1,0xfffeb
  5e:	6174                	flw	fa3,68(a0)
  60:	2f326567          	0x2f326567
  64:	6972                	flw	fs2,28(sp)
  66:	33766373          	csrrsi	t1,mhpmevent23,12
  6a:	2d32                	fld	fs10,264(sp)
  6c:	6e75                	lui	t3,0x1d
  6e:	776f6e6b          	0x776f6e6b
  72:	2d6e                	fld	fs10,216(sp)
  74:	6c65                	lui	s8,0x19
  76:	2f66                	fld	ft10,88(sp)
  78:	696c                	flw	fa1,84(a0)
  7a:	6762                	flw	fa4,24(sp)
  7c:	47006363          	bltu	zero,a6,4e2 <skip_atoi+0x7a>
  80:	554e                	lw	a0,240(sp)
  82:	4120                	lw	s0,64(a0)
  84:	2e322053          	0x2e322053
  88:	2e003233          	0x2e003233
  8c:	2f2e                	fld	ft10,200(sp)
  8e:	2e2e                	fld	ft8,200(sp)
  90:	2f2e2e2f          	0x2f2e2e2f
  94:	2f2e                	fld	ft10,200(sp)
  96:	6972                	flw	fs2,28(sp)
  98:	2d766373          	csrrsi	t1,0x2d7,12
  9c:	2f636367          	0x2f636367
  a0:	696c                	flw	fa1,84(a0)
  a2:	6762                	flw	fa4,24(sp)
  a4:	632f6363          	bltu	t5,s2,6ca <number+0x1d2>
  a8:	69666e6f          	jal	t3,6673e <__modsi3+0x64d16>
  ac:	69722f67          	0x69722f67
  b0:	2f766373          	csrrsi	t1,0x2f7,12
  b4:	6964                	flw	fs1,84(a0)
  b6:	2e76                	fld	ft8,344(sp)
  b8:	          	fadd.s	ft0,ft0,ft0,rne
